BL51 BANKED LINKER/LOCATER V6.22                                                        06/07/2020  11:08:23  PAGE 1


BL51 BANKED LINKER/LOCATER V6.22, INVOKED BY:
D:\KEIL4_FORAMT630A\C51\BIN\BL51.EXE ..\..\..\ARKLib\AMTIOLib.LIB, ..\..\..\ARKLib\SPI.LIB, ..\..\..\ARKLib\AMT630A_VIDE
>> O_LIB_V1.1.1_test.LIB, ..\Hex\ConfigLcdPara.obj, ..\Hex\Uart_AdjSpiReg.obj, ..\Hex\ArkChip.obj, ..\Hex\Mcu.obj, ..\He
>> x\E2prom.obj, ..\Hex\Flash.obj, ..\Hex\E2pI2C.obj, ..\Hex\KeyI2C.obj, ..\Hex\WT5700.obj, ..\Hex\Kt0803lI2C.obj, ..\He
>> x\Kt0803l.obj, ..\Hex\BT_UartRec.obj, ..\Hex\Main.obj, ..\Hex\Global.obj, ..\Hex\GetSysMsg.obj, ..\Hex\Delay.obj, ..\
>> Hex\Interrupt.obj, ..\Hex\EventHandle.obj, ..\Hex\GetUserInputMsg.obj, ..\Hex\AdcKeyPad.obj, ..\Hex\Ir.obj, ..\Hex\To
>> uchKeyPad.obj, ..\Hex\SysPower.obj, ..\Hex\SysWorkPara.obj, ..\Hex\VideoProc.obj, ..\Hex\BatteryAdc.obj, ..\Hex\Osd_A
>> MT630FontLib.obj, ..\Hex\Osd_GeneralFontDat.obj, ..\Hex\Osd_PowerOnMenu.obj, ..\Hex\Osd_PowerOffMenu.obj, ..\Hex\Osd_
>> RootMenu.obj, ..\Hex\Osd_LogoMenu.obj, ..\Hex\Osd_BatteryAdcMenu.obj, ..\Hex\Osd_NoSignalMenu.obj, ..\Hex\Osd_BTMenu.
>> obj, ..\Hex\Osd_BTCallerMenu.obj, ..\Hex\Osd_QuicklySourceMenu.obj, ..\Hex\Osd_QuicklyMuteMenu.obj, ..\Hex\Osd_Bright
>> nessMenu.obj, ..\Hex\Osd_ContrastMenu.obj, ..\Hex\Osd_SaturationMenu.obj, ..\Hex\Osd_TintMenu.obj, ..\Hex\Osd_VolumeM
>> enu.obj, ..\Hex\Osd_ModeMenu.obj, ..\Hex\Osd_SysMenu.obj, ..\Hex\Osd_LanguageMenu.obj, ..\Hex\Osd_IRABMenu.obj, ..\He
>> x\Osd_RadioFreqMenu.obj, ..\Hex\Osd_ResetMenu.obj, ..\Hex\Osd_Menu.obj, ..\Hex\Osd_FactoryMenu.obj, ..\Hex\Osd_Factor
>> yPicMenu.obj, ..\Hex\Osd_FactorySwitchMenu.obj, ..\Hex\Debug.obj TO ..\Hex\AMT_CAR_HEX PRINT (..\\List\AMT_CAR_HEX.m5
>> 1) RAMSIZE (256) CODE (?PR?POS_GETUSERDEFINEDMSG?GETSYSMSG (0X0070), ?PR?POS_TRANSFERADCKEYCMD?GETUSERINPUTMSG (0X028
>> 7), ?PR?_POS_VIDEOPROCESS?AMT_VIDEOPROCESS (0X0428), ?PR?_POS_GETBESTADCKEYVAL?ADCKEYPAD (0X05A6), ?PR?POS_GETADCKEYV
>> ALUE?ADCKEYPAD (0X06A9), ?PR?POS_SYSTIMEDRIVER?ARKCHIP (0X0799), ?PR?_POS_ENABLECHIPADC?ARKCHIP (0X0886), ?PR?POS_IRQ
>> SERVERTIMER1?INTERRUPT (0X0966), ?PR?POS_GETI2CKEYVALUE?TOUCHKEYPAD (0X0A41), ?PR?_POS_FILTERADCKEYVAL?ADCKEYPAD (0X0
>> B01), ?PR?POS_TRANSFERI2CKEYCMD?GETUSERINPUTMSG (0X0BB1), ?PR?POS_GETKEYPADMSG?GETUSERINPUTMSG (0X0C5A), ?PR?POS_SELE
>> CTKEYDEVICE?ARKCHIP (0X0CFE), ?PR?_POS_RELEASEADCKEY?ADCKEYPAD (0X0D69), ?PR?_POS_TRANSFERKEYMSG?GETUSERINPUTMSG (0X0
>> DCE), ?PR?POS_GETSIGNALMSG?GETSYSMSG (0X0E2D), ?PR?POS_GETCOLORSYSMSG?GETSYSMSG (0X0E70), ?PR?POS_GETTIMEMSG?GETSYSMS
>> G (0X0E9D), ?PR?POS_GETUSERINPUTMSG?GETSYSMSG (0X0EC2), ?PR?POS_IRQSERVEREXT2?INTERRUPT (0X0EDE), ?PR?POS_CLEARWATCHD
>> OG?MCU (0X0EF5), ?PR?POS_GETBATTERYADCMSG?GETSYSMSG (0X0F05), ?PR?POS_IRQSERVERTIMER0?INTERRUPT (0X0F15), ?PR?POS_GET
>> BTMSG?GETSYSMSG (0X0F20), ?PR?POS_GETMISCMSG?GETSYSMSG (0X0F28), ?PR?POS_IRQSERVEREXT3?INTERRUPT (0X0F30), ?PR?POS_IR
>> QSERVEREXT4?INTERRUPT (0X0F34), ?PR?POS_IRQSERVEREXT5?INTERRUPT (0X0F38), ?PR?POS_IRQSERVEREXT0?INTERRUPT (0X0F3C), ?
>> PR?POS_IRQSERVERREC?INTERRUPT (0X0F3D))


MEMORY MODEL: SMALL


INPUT MODULES INCLUDED:
  ..\Hex\ConfigLcdPara.obj (CONFIGLCDPARA)
  ..\Hex\Uart_AdjSpiReg.obj (UART_ADJSPIREG)
  ..\Hex\ArkChip.obj (ARKCHIP)
  ..\Hex\Mcu.obj (MCU)
  ..\Hex\E2prom.obj (E2PROM)
  ..\Hex\Flash.obj (FLASH)
  ..\Hex\E2pI2C.obj (E2PI2C)
  ..\Hex\KeyI2C.obj (KEYI2C)
  ..\Hex\WT5700.obj (WT5700)
  ..\Hex\Kt0803lI2C.obj (KT0803LI2C)
  ..\Hex\Kt0803l.obj (KT0803L)
  ..\Hex\BT_UartRec.obj (BT_UARTREC)
  ..\Hex\Main.obj (MAIN)
  ..\Hex\Global.obj (GLOBAL)
  ..\Hex\GetSysMsg.obj (GETSYSMSG)
  ..\Hex\Delay.obj (DELAY)
  ..\Hex\Interrupt.obj (INTERRUPT)
  ..\Hex\EventHandle.obj (EVENTHANDLE)
  ..\Hex\GetUserInputMsg.obj (GETUSERINPUTMSG)
  ..\Hex\AdcKeyPad.obj (ADCKEYPAD)
  ..\Hex\Ir.obj (IR)
  ..\Hex\TouchKeyPad.obj (TOUCHKEYPAD)
  ..\Hex\SysPower.obj (SYSPOWER)
  ..\Hex\SysWorkPara.obj (SYSWORKPARA)
  ..\Hex\VideoProc.obj (VIDEOPROC)
  ..\Hex\BatteryAdc.obj (BATTERYADC)
BL51 BANKED LINKER/LOCATER V6.22                                                      06/07/2020  11:08:23  PAGE 2


  ..\Hex\Osd_AMT630FontLib.obj (OSD_AMT630FONTLIB)
  ..\Hex\Osd_GeneralFontDat.obj (OSD_GENERALFONTDAT)
  ..\Hex\Osd_PowerOnMenu.obj (OSD_POWERONMENU)
  ..\Hex\Osd_PowerOffMenu.obj (OSD_POWEROFFMENU)
  ..\Hex\Osd_RootMenu.obj (OSD_ROOTMENU)
  ..\Hex\Osd_LogoMenu.obj (OSD_LOGOMENU)
  ..\Hex\Osd_BatteryAdcMenu.obj (OSD_BATTERYADCMENU)
  ..\Hex\Osd_NoSignalMenu.obj (OSD_NOSIGNALMENU)
  ..\Hex\Osd_BTMenu.obj (OSD_BTMENU)
  ..\Hex\Osd_BTCallerMenu.obj (OSD_BTCALLERMENU)
  ..\Hex\Osd_QuicklySourceMenu.obj (OSD_QUICKLYSOURCEMENU)
  ..\Hex\Osd_QuicklyMuteMenu.obj (OSD_QUICKLYMUTEMENU)
  ..\Hex\Osd_BrightnessMenu.obj (OSD_BRIGHTNESSMENU)
  ..\Hex\Osd_ContrastMenu.obj (OSD_CONTRASTMENU)
  ..\Hex\Osd_SaturationMenu.obj (OSD_SATURATIONMENU)
  ..\Hex\Osd_TintMenu.obj (OSD_TINTMENU)
  ..\Hex\Osd_VolumeMenu.obj (OSD_VOLUMEMENU)
  ..\Hex\Osd_ModeMenu.obj (OSD_MODEMENU)
  ..\Hex\Osd_SysMenu.obj (OSD_SYSMENU)
  ..\Hex\Osd_LanguageMenu.obj (OSD_LANGUAGEMENU)
  ..\Hex\Osd_IRABMenu.obj (OSD_IRABMENU)
  ..\Hex\Osd_RadioFreqMenu.obj (OSD_RADIOFREQMENU)
  ..\Hex\Osd_ResetMenu.obj (OSD_RESETMENU)
  ..\Hex\Osd_Menu.obj (OSD_MENU)
  ..\Hex\Osd_FactoryMenu.obj (OSD_FACTORYMENU)
  ..\Hex\Osd_FactoryPicMenu.obj (OSD_FACTORYPICMENU)
  ..\Hex\Osd_FactorySwitchMenu.obj (OSD_FACTORYSWITCHMENU)
  ..\Hex\Debug.obj (DEBUG)
  ..\..\..\ARKLib\AMTIOLib.LIB (SETP1_0)
  ..\..\..\ARKLib\AMTIOLib.LIB (SETP1_1)
  ..\..\..\ARKLib\AMTIOLib.LIB (SETP3_5)
  ..\..\..\ARKLib\AMTIOLib.LIB (GETP1_0)
  ..\..\..\ARKLib\AMT630A_VIDEO_LIB_V1.1.1_test.LIB (AMT_STATIC_INIT)
  ..\..\..\ARKLib\AMT630A_VIDEO_LIB_V1.1.1_test.LIB (AMT_VIDEOPROCESS)
  D:\KEIL4_FORAMT630A\C51\LIB\C51S.LIB (?C_STARTUP)
  D:\KEIL4_FORAMT630A\C51\LIB\C51S.LIB (?C?COPY)
  D:\KEIL4_FORAMT630A\C51\LIB\C51S.LIB (?C?CLDPTR)
  D:\KEIL4_FORAMT630A\C51\LIB\C51S.LIB (?C?CLDOPTR)
  D:\KEIL4_FORAMT630A\C51\LIB\C51S.LIB (?C?CSTOPTR)
  D:\KEIL4_FORAMT630A\C51\LIB\C51S.LIB (?C?IMUL)
  D:\KEIL4_FORAMT630A\C51\LIB\C51S.LIB (?C?UIDIV)
  D:\KEIL4_FORAMT630A\C51\LIB\C51S.LIB (?C?SIDIV)
  D:\KEIL4_FORAMT630A\C51\LIB\C51S.LIB (?C?IILDX)
  D:\KEIL4_FORAMT630A\C51\LIB\C51S.LIB (?C?ILDPTR)
  D:\KEIL4_FORAMT630A\C51\LIB\C51S.LIB (?C?ILDOPTR)
  D:\KEIL4_FORAMT630A\C51\LIB\C51S.LIB (?C?LMUL)
  D:\KEIL4_FORAMT630A\C51\LIB\C51S.LIB (?C?ULDIV)
  D:\KEIL4_FORAMT630A\C51\LIB\C51S.LIB (?C?ULCMP)
  D:\KEIL4_FORAMT630A\C51\LIB\C51S.LIB (?C?ULSHR)
  D:\KEIL4_FORAMT630A\C51\LIB\C51S.LIB (?C?LSTXDATA)
  D:\KEIL4_FORAMT630A\C51\LIB\C51S.LIB (?C?OFFX256)
  D:\KEIL4_FORAMT630A\C51\LIB\C51S.LIB (?C?OFFXADD)
  D:\KEIL4_FORAMT630A\C51\LIB\C51S.LIB (?C?PLDPTR)
  D:\KEIL4_FORAMT630A\C51\LIB\C51S.LIB (?C?PLDOPTR)
  D:\KEIL4_FORAMT630A\C51\LIB\C51S.LIB (?C?CCASE)
  D:\KEIL4_FORAMT630A\C51\LIB\C51S.LIB (?C?ICALL)
  D:\KEIL4_FORAMT630A\C51\LIB\C51S.LIB (?C_IBP)
BL51 BANKED LINKER/LOCATER V6.22                                                      06/07/2020  11:08:23  PAGE 3


  D:\KEIL4_FORAMT630A\C51\LIB\C51S.LIB (?C?STRCMP)
  D:\KEIL4_FORAMT630A\C51\LIB\C51S.LIB (ATOI)
  D:\KEIL4_FORAMT630A\C51\LIB\C51S.LIB (?C_INIT)
  D:\KEIL4_FORAMT630A\C51\LIB\C51S.LIB (?C?PLDIDATA)
  D:\KEIL4_FORAMT630A\C51\LIB\C51S.LIB (?C?PLDXDATA)
  D:\KEIL4_FORAMT630A\C51\LIB\C51S.LIB (?C?PLDPDATA)
  D:\KEIL4_FORAMT630A\C51\LIB\C51S.LIB (?C?PLDCODE)
  D:\KEIL4_FORAMT630A\C51\LIB\C51S.LIB (ISDIGIT)
  D:\KEIL4_FORAMT630A\C51\LIB\C51S.LIB (ISSPACE)


LINK MAP OF MODULE:  ..\Hex\AMT_CAR_HEX (CONFIGLCDPARA)


            TYPE    BASE      LENGTH    RELOCATION   SEGMENT NAME
            -----------------------------------------------------

            * * * * * * *   D A T A   M E M O R Y   * * * * * * *
            REG     0000H     0008H     ABSOLUTE     "REG BANK 0"
            DATA    0008H     0018H     UNIT         ?DT?ARKCHIP
            BIT     0020H.0   0001H.1   UNIT         ?BI?INTERRUPT
            BIT     0021H.1   0001H.0   UNIT         ?BI?GLOBAL
            BIT     0022H.1   0000H.2   UNIT         ?BI?GETSYSMSG
            BIT     0022H.3   0000H.2   UNIT         _BIT_GROUP_
            BIT     0022H.5   0000H.1   UNIT         ?BI?POS_GETBATTERYADCMSG?GETSYSMSG
            BIT     0022H.6   0000H.1   UNIT         ?BI?POS_GETBTMSG?GETSYSMSG
                    0022H.7   0000H.1                *** GAP ***
            DATA    0023H     001CH     UNIT         _DATA_GROUP_
            DATA    003FH     000BH     UNIT         ?DT?_LOADBITMAPTOFONTRAM?ARKCHIP
            DATA    004AH     0004H     UNIT         ?DT?_OSDWRITECHARTOFONTRAM?ARKCHIP
            DATA    004EH     0003H     UNIT         ?DT?_OSDCONFIGBITMAPPALETTE?ARKCHIP
            DATA    0051H     0002H     UNIT         ?DT?_OSDCONFIGCOLORCHANGWNDSIZE?ARKCHIP
            DATA    0053H     0002H     UNIT         ?DT?_OSDCONFIGCOLORCHANGWNDPOSITION?ARKCHIP
            DATA    0055H     0002H     UNIT         ?DT?_WRITEWT5700?WT5700
            DATA    0057H     0002H     UNIT         ?DT?INTERRUPT
            DATA    0059H     0001H     UNIT         ?DT?GLOBAL
            DATA    005AH     0001H     UNIT         ?DT?_BTMSGHANDLE?EVENTHANDLE
            DATA    005BH     0001H     UNIT         ?C?LIB_DATA
            IDATA   005CH     0001H     UNIT         ?STACK

            * * * * * * *  X D A T A   M E M O R Y  * * * * * * *
            XDATA   0000H     0058H     UNIT         ?XD?GLOBAL
            XDATA   0058H     001BH     UNIT         _XDATA_GROUP_
            XDATA   0073H     000FH     UNIT         ?XD?ARKCHIP
            XDATA   0082H     000AH     UNIT         ?XD?ADCKEYPAD
            XDATA   008CH     0006H     UNIT         ?XD?AMT_VIDEOPROCESS
            XDATA   0092H     0004H     UNIT         ?XD?CONFIGLCDPARA
            XDATA   0096H     0004H     UNIT         ?XD?_OSDWRITECHARTOFONTRAM?ARKCHIP
            XDATA   009AH     0004H     UNIT         ?XD?IR
            XDATA   009EH     0003H     UNIT         ?XD?OSD_MENU
            XDATA   00A1H     0002H     UNIT         ?XD?POS_SELECTKEYDEVICE?ARKCHIP
            XDATA   00A3H     0002H     UNIT         ?XD?POS_SYSTIMEDRIVER?ARKCHIP
            XDATA   00A5H     0002H     UNIT         ?XD?_LOADBITMAPTOFONTRAM?ARKCHIP
            XDATA   00A7H     0002H     UNIT         ?XD?POS_GETBATTERYADCMSG?GETSYSMSG
            XDATA   00A9H     0002H     UNIT         ?XD?INTERRUPT
            XDATA   00ABH     0001H     UNIT         ?XD?_OSDCONFIGBITMAPPALETTE?ARKCHIP
            XDATA   00ACH     0001H     UNIT         ?XD?FLASH
BL51 BANKED LINKER/LOCATER V6.22                                                      06/07/2020  11:08:23  PAGE 4


            XDATA   00ADH     0001H     UNIT         ?XD?_WRITEWT5700?WT5700
            XDATA   00AEH     0001H     UNIT         ?XD?GETSYSMSG

            * * * * * * *   C O D E   M E M O R Y   * * * * * * *
            CODE    0000H     0003H     ABSOLUTE     
            CODE    0003H     0003H     ABSOLUTE     
            CODE    0006H     0005H     UNIT         ?CO?TOUCHKEYPAD
            CODE    000BH     0003H     ABSOLUTE     
            CODE    000EH     000DH     UNIT         ?PR?_CONFIGCRTLMODE?ARKCHIP
            CODE    001BH     0003H     ABSOLUTE     
            CODE    001EH     0005H     UNIT         ?PR?EXECTBRIGHTNESS?OSD_BRIGHTNESSMENU
            CODE    0023H     0003H     ABSOLUTE     
            CODE    0026H     001DH     UNIT         ?PR?BRIGHTNESSMENU_TITELSTR?OSD_BRIGHTNESSMENU
            CODE    0043H     0003H     ABSOLUTE     
            CODE    0046H     0005H     UNIT         ?PR?EXECTCONTRAST?OSD_CONTRASTMENU
            CODE    004BH     0003H     ABSOLUTE     
            CODE    004EH     0005H     UNIT         ?PR?EXECTSATURATION?OSD_SATURATIONMENU
            CODE    0053H     0003H     ABSOLUTE     
            CODE    0056H     0005H     UNIT         ?PR?EXECTTINT?OSD_TINTMENU
            CODE    005BH     0003H     ABSOLUTE     
            CODE    005EH     0012H     UNIT         ?PR?TURNOFFBACKLIGHT?ARKCHIP
            CODE    0070H     0217H     UNIT         ?PR?POS_GETUSERDEFINEDMSG?GETSYSMSG
            CODE    0287H     01A1H     UNIT         ?PR?POS_TRANSFERADCKEYCMD?GETUSERINPUTMSG
            CODE    0428H     017EH     UNIT         ?PR?_POS_VIDEOPROCESS?AMT_VIDEOPROCESS
            CODE    05A6H     0103H     UNIT         ?PR?_POS_GETBESTADCKEYVAL?ADCKEYPAD
            CODE    06A9H     00F0H     UNIT         ?PR?POS_GETADCKEYVALUE?ADCKEYPAD
            CODE    0799H     00EDH     UNIT         ?PR?POS_SYSTIMEDRIVER?ARKCHIP
            CODE    0886H     00E0H     UNIT         ?PR?_POS_ENABLECHIPADC?ARKCHIP
            CODE    0966H     00DBH     UNIT         ?PR?POS_IRQSERVERTIMER1?INTERRUPT
            CODE    0A41H     00C0H     UNIT         ?PR?POS_GETI2CKEYVALUE?TOUCHKEYPAD
            CODE    0B01H     00B0H     UNIT         ?PR?_POS_FILTERADCKEYVAL?ADCKEYPAD
            CODE    0BB1H     00A9H     UNIT         ?PR?POS_TRANSFERI2CKEYCMD?GETUSERINPUTMSG
            CODE    0C5AH     00A4H     UNIT         ?PR?POS_GETKEYPADMSG?GETUSERINPUTMSG
            CODE    0CFEH     006BH     UNIT         ?PR?POS_SELECTKEYDEVICE?ARKCHIP
            CODE    0D69H     0065H     UNIT         ?PR?_POS_RELEASEADCKEY?ADCKEYPAD
            CODE    0DCEH     005FH     UNIT         ?PR?_POS_TRANSFERKEYMSG?GETUSERINPUTMSG
            CODE    0E2DH     0043H     UNIT         ?PR?POS_GETSIGNALMSG?GETSYSMSG
            CODE    0E70H     002DH     UNIT         ?PR?POS_GETCOLORSYSMSG?GETSYSMSG
            CODE    0E9DH     0025H     UNIT         ?PR?POS_GETTIMEMSG?GETSYSMSG
            CODE    0EC2H     001CH     UNIT         ?PR?POS_GETUSERINPUTMSG?GETSYSMSG
            CODE    0EDEH     0017H     UNIT         ?PR?POS_IRQSERVEREXT2?INTERRUPT
            CODE    0EF5H     0010H     UNIT         ?PR?POS_CLEARWATCHDOG?MCU
            CODE    0F05H     0010H     UNIT         ?PR?POS_GETBATTERYADCMSG?GETSYSMSG
            CODE    0F15H     000BH     UNIT         ?PR?POS_IRQSERVERTIMER0?INTERRUPT
            CODE    0F20H     0008H     UNIT         ?PR?POS_GETBTMSG?GETSYSMSG
            CODE    0F28H     0008H     UNIT         ?PR?POS_GETMISCMSG?GETSYSMSG
            CODE    0F30H     0004H     UNIT         ?PR?POS_IRQSERVEREXT3?INTERRUPT
            CODE    0F34H     0004H     UNIT         ?PR?POS_IRQSERVEREXT4?INTERRUPT
            CODE    0F38H     0004H     UNIT         ?PR?POS_IRQSERVEREXT5?INTERRUPT
            CODE    0F3CH     0001H     UNIT         ?PR?POS_IRQSERVEREXT0?INTERRUPT
            CODE    0F3DH     0001H     UNIT         ?PR?POS_IRQSERVERREC?INTERRUPT
            CODE    0F3EH     1780H     UNIT         ?CO?OSD_AMT630FONTLIB
            CODE    26BEH     0DDBH     UNIT         ?PR?_EXECTCOMD?OSD_MENU
            CODE    3499H     0CE7H     UNIT         ?CO?OSD_MENU
            CODE    4180H     0673H     UNIT         ?CO?ARKCHIP
            CODE    47F3H     061CH     UNIT         ?C?LIB_CODE
            CODE    4E0FH     037BH     UNIT         ?PR?CONFIGOSDBLOCKSTARINDEXADDR?OSD_MENU
BL51 BANKED LINKER/LOCATER V6.22                                                      06/07/2020  11:08:23  PAGE 5


            CODE    518AH     0301H     UNIT         ?CO?CONFIGLCDPARA
            CODE    548BH     0294H     UNIT         ?PR?DRAWOSDMENU?OSD_MENU
            CODE    571FH     028FH     UNIT         ?PR?DRAWSPECIALOSDMENU?OSD_MENU
            CODE    59AEH     0159H     UNIT         ?PR?_OSDDRAWNUM?ARKCHIP
            CODE    5B07H     0155H     UNIT         ?PR?_FINDCOMDINCURMENUITEM?OSD_MENU
            CODE    5C5CH     0151H     UNIT         ?PR?_?DRAWOSDMENUITEM?OSD_MENU
            CODE    5DADH     0145H     UNIT         ?PR?_OSDDRAWGUAGE?ARKCHIP
            CODE    5EF2H     0134H     UNIT         ?PR?_OSDDRAWICON?ARKCHIP
            CODE    6026H     0132H     UNIT         ?PR?CHECKSETTING?SYSWORKPARA
            CODE    6158H     012BH     UNIT         ?CO?OSD_BRIGHTNESSMENU
            CODE    6283H     0128H     UNIT         ?PR?_?DRAWOSDTITEL?OSD_MENU
            CODE    63ABH     0123H     UNIT         ?CO?OSD_LANGUAGEMENU
            CODE    64CEH     0122H     UNIT         ?PR?_OSDDRAWSTR?ARKCHIP
            CODE    65F0H     011DH     UNIT         ?PR?_LOADBITMAPTOFONTRAM?ARKCHIP
            CODE    670DH     0109H     UNIT         ?CO?OSD_SATURATIONMENU
            CODE    6816H     0102H     UNIT         ?CO?OSD_CONTRASTMENU
            CODE    6918H     00F3H     UNIT         ?PR?_CONFIGCOLORSYSDYNPARA?CONFIGLCDPARA
            CODE    6A0BH     00EEH     UNIT         ?PR?_LOADMULCHARTOFONTRAM?ARKCHIP
            CODE    6AF9H     00ECH     UNIT         ?PR?GETNEXTMENU?OSD_MENU
            CODE    6BE5H     00EBH     UNIT         ?PR?GETPREVITEM?OSD_MENU
            CODE    6CD0H     00E8H     UNIT         ?PR?GETPREMENU?OSD_MENU
            CODE    6DB8H     00E4H     UNIT         ?PR?OSDGETSTARTINDEXADDR?ARKCHIP
            CODE    6E9CH     00DEH     UNIT         ?PR?_USERDEFINEDMSGHANDLE?EVENTHANDLE
            CODE    6F7AH     00DAH     UNIT         ?PR?_WRITEFLASHSYSPARA?FLASH
            CODE    7054H     00D5H     UNIT         ?PR?_DRAWOSDICON?OSD_MENU
            CODE    7129H     00D4H     UNIT         ?PR?_OSDCONFIGWNDPOSITION?ARKCHIP
            CODE    71FDH     00D3H     UNIT         ?PR?GETPROCOMPIELTIME?ARKCHIP
            CODE    72D0H     00D0H     UNIT         ?PR?_DRAWOSDMENUITEMVALUE?OSD_MENU
            CODE    73A0H     00D0H     UNIT         ?PR?GETNEXTITEM?OSD_MENU
            CODE    7470H     00C2H     UNIT         ?PR?_OSDWRITECHARTOFONTRAM?ARKCHIP
            CODE    7532H     00C1H     UNIT         ?PR?_DRAWOSDMENUITEMNUMBER?OSD_MENU
            CODE    75F3H     00BFH     UNIT         ?PR?_DATACURVE?CONFIGLCDPARA
            CODE    76B2H     00BDH     UNIT         ?PR?_OSDWNDCLEAR?ARKCHIP
            CODE    776FH     00BCH     UNIT         ?PR?_ENABLEFLASHUNPROTECTED?FLASH
            CODE    782BH     00B7H     UNIT         ?PR?_OSDCONFIGSCALER?ARKCHIP
            CODE    78E2H     00B6H     UNIT         ?PR?_ERASEFLASHSECTOR?FLASH
            CODE    7998H     00B6H     UNIT         ?CO?OSD_SYSMENU
            CODE    7A4EH     00B5H     UNIT         ?PR?_OSDDRAWHEX?ARKCHIP
            CODE    7B03H     00B5H     UNIT         ?CO?OSD_RADIOFREQMENU
            CODE    7BB8H     00B1H     UNIT         ?PR?_SETPWM0?ARKCHIP
            CODE    7C69H     00B1H     UNIT         ?PR?_SETPWM1?ARKCHIP
            CODE    7D1AH     00B1H     UNIT         ?PR?_SETPWM2?ARKCHIP
            CODE    7DCBH     00B1H     UNIT         ?PR?_SETPWM3?ARKCHIP
            CODE    7E7CH     00B0H     UNIT         ?CO?OSD_GENERALFONTDAT
            CODE    7F2CH     00AEH     UNIT         ?PR?UPDATAPICPARA?CONFIGLCDPARA
            CODE    7FDAH     00AEH     UNIT         ?PR?_ATOI?ATOI
            CODE    8088H     00A2H     UNIT         ?PR?_READFLASHSYSPARA?FLASH
            CODE    812AH     00A1H     UNIT         ?PR?EXECTQUICKLYSOURCE?OSD_QUICKLYSOURCEMENU
            CODE    81CBH     00A0H     UNIT         ?PR?INITAMT?AMT_STATIC_INIT
            CODE    826BH     0097H     UNIT         ?PR?_CONFIGDISPZOOMDYNPARA?CONFIGLCDPARA
            CODE    8302H     0096H     UNIT         ?PR?AUTODETECTFLASHTYPE?FLASH
            CODE    8398H     0096H     UNIT         ?PR?_READWT5700?WT5700
            CODE    842EH     0091H     UNIT         ?CO?OSD_TINTMENU
            CODE    84BFH     0091H     UNIT         ?PR?_DRAWOSDMENUITEMGUAGE?OSD_MENU
            CODE    8550H     0090H     UNIT         ?PR?_CONFIGSTATICPARA?CONFIGLCDPARA
            CODE    85E0H     0090H     UNIT         ?CO?OSD_MODEMENU
            CODE    8670H     0090H     UNIT         ?CO?OSD_RESETMENU
BL51 BANKED LINKER/LOCATER V6.22                                                      06/07/2020  11:08:23  PAGE 6


            CODE    8700H     008EH     UNIT         ?PR?MAIN?MAIN
            CODE    878EH     008DH     UNIT         ?PR?_DRAWOSDMENUITEMOPTION?OSD_MENU
            CODE    881BH     008CH     UNIT         ?C_C51STARTUP
            CODE    88A7H     008BH     UNIT         ?PR?RESETSETTING?SYSWORKPARA
            CODE    8932H     0086H     UNIT         ?CO?OSD_IRABMENU
            CODE    89B8H     007FH     UNIT         ?PR?_OSDCONFIGBLOCKINDEXSTARADDR?ARKCHIP
            CODE    8A37H     007CH     UNIT         ?CO?OSD_VOLUMEMENU
            CODE    8AB3H     0079H     UNIT         ?PR?_VERIFYSETTING?SYSWORKPARA
            CODE    8B2CH     0078H     UNIT         ?PR?_OSDBLOCKCLEAR?ARKCHIP
            CODE    8BA4H     0077H     UNIT         ?PR?OSDGETBLOCKSIZE?ARKCHIP
            CODE    8C1BH     0076H     UNIT         ?PR?_KEYMSGPROCESS?OSD_MENU
            CODE    8C91H     0075H     UNIT         ?PR?_OSDCONFIGBLOCKCOLOR?ARKCHIP
            CODE    8D06H     0075H     UNIT         ?PR?_DMALOADFONTRAM?ARKCHIP
            CODE    8D7BH     0072H     UNIT         ?PR?_SETT2BAUDRATE?MCU
            CODE    8DEDH     0068H     UNIT         ?PR?POWERONSYSTEM?SYSPOWER
            CODE    8E55H     0067H     UNIT         ?PR?_OSDCONFIGBITMAPPALETTE?ARKCHIP
            CODE    8EBCH     0065H     UNIT         ?PR?_WRITEWT5700?WT5700
            CODE    8F21H     0065H     UNIT         ?PR?INITOSD?OSD_MENU
            CODE    8F86H     0064H     UNIT         ?PR?_SELVIDEODEVICE?ARKCHIP
            CODE    8FEAH     0060H     UNIT         ?PR?INITGLOBALVARIABLES?GLOBAL
            CODE    904AH     005FH     UNIT         ?PR?_SETVDETESTSWITCH?ARKCHIP
            CODE    90A9H     005FH     UNIT         ?C_INITSEG
            CODE    9108H     005FH     UNIT         ?PR?READSETTING?SYSWORKPARA
            CODE    9167H     005EH     UNIT         ?PR?CONFIGPADMUXPARA?CONFIGLCDPARA
            CODE    91C5H     005AH     UNIT         ?PR?_TINTCURVE?CONFIGLCDPARA
            CODE    921FH     005AH     UNIT         ?PR?SAVESETTING?SYSWORKPARA
            CODE    9279H     0056H     UNIT         ?PR?EXECTLANGUAGE?OSD_LANGUAGEMENU
            CODE    92CFH     0056H     UNIT         ?PR?_MENUPROCESSKEY?OSD_MENU
            CODE    9325H     0052H     UNIT         ?PR?_CONTSYSCHECKSUM?SYSWORKPARA
            CODE    9377H     0050H     UNIT         ?PR?KEYI2CREAD?KEYI2C
            CODE    93C7H     004DH     UNIT         ?PR?_OSDCONFIGDISPMODE?ARKCHIP
            CODE    9414H     004AH     UNIT         ?PR?_VERIFYFLASHDATE?FLASH
            CODE    945EH     0048H     UNIT         ?PR?INITADC?ARKCHIP
            CODE    94A6H     0047H     UNIT         ?PR?_KEYI2CWRITE?KEYI2C
            CODE    94EDH     0046H     UNIT         ?PR?OSDCOFIGPALETTE?ARKCHIP
            CODE    9533H     0043H     UNIT         ?PR?OSDGETWNDWIDTH?ARKCHIP
            CODE    9576H     0043H     UNIT         ?PR?_FINDMENUPAGEINDEX?OSD_MENU
            CODE    95B9H     0042H     UNIT         ?PR?POWERONMENU_CHECKCONDITION?OSD_POWERONMENU
            CODE    95FBH     0042H     UNIT         ?PR?QUICKLYSOURCEMENU_CHECKCONDITION?OSD_QUICKLYSOURCEMENU
            CODE    963DH     0042H     UNIT         ?PR?BRIGHTNESSMENU_CHECKCONDITION?OSD_BRIGHTNESSMENU
            CODE    967FH     0040H     UNIT         ?PR?_OSDCONFIGWNDSIZE?ARKCHIP
            CODE    96BFH     003EH     UNIT         ?PR?VOLUMEMENU_CHECKCONDITION?OSD_VOLUMEMENU
            CODE    96FDH     003EH     UNIT         ?PR?MODEMENU_CHECKCONDITION?OSD_MODEMENU
            CODE    973BH     003EH     UNIT         ?PR?SYSMENU_CHECKCONDITION?OSD_SYSMENU
            CODE    9779H     003DH     UNIT         ?PR?OSDCLEAR?ARKCHIP
            CODE    97B6H     003DH     UNIT         ?PR?_ADJUSTSYS?OSD_SYSMENU
            CODE    97F3H     0038H     UNIT         ?PR?_GETSOURCEID?CONFIGLCDPARA
            CODE    982BH     0036H     UNIT         ?PR?INITCARREVERSING?ARKCHIP
            CODE    9861H     0036H     UNIT         ?PR?KEYACKCHECK?KEYI2C
            CODE    9897H     0031H     UNIT         ?CO?OSD_POWERONMENU
            CODE    98C8H     0031H     UNIT         ?CO?OSD_QUICKLYSOURCEMENU
            CODE    98F9H     0031H     UNIT         ?PR?_ADJUSTBRIGHTNESS?OSD_BRIGHTNESSMENU
            CODE    992AH     0031H     UNIT         ?PR?_ADJUSTCONTRAST?OSD_CONTRASTMENU
            CODE    995BH     0031H     UNIT         ?PR?_ADJUSTSATURATION?OSD_SATURATIONMENU
            CODE    998CH     0030H     UNIT         ?PR?_SELVIDEOINPUTSOURCE?VIDEOPROC
            CODE    99BCH     002FH     UNIT         ?PR?_ADJUSTLANGUAGE?OSD_LANGUAGEMENU
            CODE    99EBH     002FH     UNIT         ?PR?_ADJUSTRADIOFREQ?OSD_RADIOFREQMENU
BL51 BANKED LINKER/LOCATER V6.22                                                      06/07/2020  11:08:23  PAGE 7


            CODE    9A1AH     002EH     UNIT         ?PR?_OSDCONFIGCOLORCHANGWNDSIZE?ARKCHIP
            CODE    9A48H     002EH     UNIT         ?PR?TINTMENU_CHECKCONDITION?OSD_TINTMENU
            CODE    9A76H     002EH     UNIT         ?PR?IRABMENU_CHECKCONDITION?OSD_IRABMENU
            CODE    9AA4H     002EH     UNIT         ?PR?RADIOFREQMENU_CHECKCONDITION?OSD_RADIOFREQMENU
            CODE    9AD2H     002EH     UNIT         ?PR?RESETMENU_CHECKCONDITION?OSD_RESETMENU
            CODE    9B00H     002DH     UNIT         ?PR?INITGLOBALPARA?ARKCHIP
            CODE    9B2DH     002DH     UNIT         ?PR?_OSDCONFIGALPHA?ARKCHIP
            CODE    9B5AH     002DH     UNIT         ?PR?CHECKCOLORSYS?VIDEOPROC
            CODE    9B87H     002DH     UNIT         ?PR?_SELNEXTVIDEOSOURCE?VIDEOPROC
            CODE    9BB4H     002CH     UNIT         ?PR?_OSDCONFIGCOLORCHANGWNDPOSITION?ARKCHIP
            CODE    9BE0H     002CH     UNIT         ?CO?GETUSERINPUTMSG
            CODE    9C0CH     002CH     UNIT         ?PR?EXECTRESET?OSD_RESETMENU
            CODE    9C38H     002AH     UNIT         ?PR?POWEROFFSYSTEM?SYSPOWER
            CODE    9C62H     002AH     UNIT         ?PR?_ADJUSTVOLUME?OSD_VOLUMEMENU
            CODE    9C8CH     002AH     UNIT         ?PR?_ADJUSTIRAB?OSD_IRABMENU
            CODE    9CB6H     0029H     UNIT         ?PR?KEYNACKSEND?KEYI2C
            CODE    9CDFH     0029H     UNIT         ?PR?INITSYSWORKVARIABLE?GLOBAL
            CODE    9D08H     0029H     UNIT         ?PR?_?SETP1_0?SETP1_0
            CODE    9D31H     0029H     UNIT         ?PR?_?SETP1_1?SETP1_1
            CODE    9D5AH     0029H     UNIT         ?PR?_?SETP3_5?SETP3_5
            CODE    9D83H     0028H     UNIT         ?PR?INITIALEXTINTERRUPT?MCU
            CODE    9DABH     0028H     UNIT         ?PR?KEYI2CSTART?KEYI2C
            CODE    9DD3H     0026H     UNIT         ?CO?OSD_QUICKLYMUTEMENU
            CODE    9DF9H     0025H     UNIT         ?PR?INITIALTIMER?MCU
            CODE    9E1EH     0024H     UNIT         ?PR?QUICKLYMUTEMENU_CHECKCONDITION?OSD_QUICKLYMUTEMENU
            CODE    9E42H     0022H     UNIT         ?PR?_TIMEMSGHANDLE?EVENTHANDLE
            CODE    9E64H     0022H     UNIT         ?PR?DISPPOWERONSTR?OSD_POWERONMENU
            CODE    9E86H     0022H     UNIT         ?PR?DISPQUICKLYSOURCESTR?OSD_QUICKLYSOURCEMENU
            CODE    9EA8H     0022H     UNIT         ?PR?DISPQUICKLYMUTESTR?OSD_QUICKLYMUTEMENU
            CODE    9ECAH     0022H     UNIT         ?PR?DISPMODESTR?OSD_MODEMENU
            CODE    9EECH     0022H     UNIT         ?PR?DISPSYSSTR?OSD_SYSMENU
            CODE    9F0EH     0022H     UNIT         ?PR?LANGUAGEMENU_TITELSTR?OSD_LANGUAGEMENU
            CODE    9F30H     0022H     UNIT         ?PR?DISPLANGUAGESTR?OSD_LANGUAGEMENU
            CODE    9F52H     0022H     UNIT         ?PR?DISPIRABSTR?OSD_IRABMENU
            CODE    9F74H     0022H     UNIT         ?PR?DISPRADIOFREQSTR?OSD_RADIOFREQMENU
            CODE    9F96H     0021H     UNIT         ?PR?SOFTWAREBLOCKPROTECT?FLASH
            CODE    9FB7H     0021H     UNIT         ?PR?CONTRASTMENU_CHECKCONDITION?OSD_CONTRASTMENU
            CODE    9FD8H     0021H     UNIT         ?PR?SATURATIONMENU_CHECKCONDITION?OSD_SATURATIONMENU
            CODE    9FF9H     0021H     UNIT         ?PR?LANGUAGEMENU_CHECKCONDITION?OSD_LANGUAGEMENU
            CODE    A01AH     0020H     UNIT         ?PR?SOFTWAREBLOCKUNPROTECT?FLASH
            CODE    A03AH     0020H     UNIT         ?PR?_ADJUSTTINT?OSD_TINTMENU
            CODE    A05AH     001EH     UNIT         ?PR?_ADJUSTMODE?OSD_MODEMENU
            CODE    A078H     001DH     UNIT         ?PR?CONTRASTMENU_TITELSTR?OSD_CONTRASTMENU
            CODE    A095H     001DH     UNIT         ?PR?SATURATIONMENU_TITELSTR?OSD_SATURATIONMENU
            CODE    A0B2H     001DH     UNIT         ?PR?TINTMENU_TITELSTR?OSD_TINTMENU
            CODE    A0CFH     001DH     UNIT         ?PR?VOLUMEMENU_TITELSTR?OSD_VOLUMEMENU
            CODE    A0ECH     001DH     UNIT         ?PR?MODEMENU_TITELSTR?OSD_MODEMENU
            CODE    A109H     001DH     UNIT         ?PR?SYSMENU_TITELSTR?OSD_SYSMENU
            CODE    A126H     001DH     UNIT         ?PR?IRABMENU_TITELSTR?OSD_IRABMENU
            CODE    A143H     001DH     UNIT         ?PR?RADIOFREQMENU_TITELSTR?OSD_RADIOFREQMENU
            CODE    A160H     001DH     UNIT         ?PR?RESETMENU_TITELSTR?OSD_RESETMENU
            CODE    A17DH     001CH     UNIT         ?PR?_?GETP1_0?GETP1_0
            CODE    A199H     001AH     UNIT         ?PR?_SETMENUINDEX?OSD_MENU
            CODE    A1B3H     0019H     UNIT         ?PR?KEYI2CSTOP?KEYI2C
            CODE    A1CCH     0018H     UNIT         ?PR?INITIALSERIALPORT?MCU
            CODE    A1E4H     0018H     UNIT         ?PR?WRITEDISABLE?FLASH
            CODE    A1FCH     0018H     UNIT         ?PR?INITSYSTEM?GLOBAL
BL51 BANKED LINKER/LOCATER V6.22                                                      06/07/2020  11:08:23  PAGE 8


            CODE    A214H     0018H     UNIT         ?PR?_DELAYMS?DELAY
            CODE    A22CH     0018H     UNIT         ?PR?MODEMENUITEM_DRAWSTYLE?OSD_MODEMENU
            CODE    A244H     0018H     UNIT         ?PR?SYSMENUITEM_DRAWSTYLE?OSD_SYSMENU
            CODE    A25CH     0018H     UNIT         ?PR?LANGUAGEMENUITEM_DRAWSTYLE?OSD_LANGUAGEMENU
            CODE    A274H     0018H     UNIT         ?PR?IRABMENUITEM_DRAWSTYLE?OSD_IRABMENU
            CODE    A28CH     0018H     UNIT         ?PR?RADIOFREQMENUITEM_DRAWSTYLE?OSD_RADIOFREQMENU
            CODE    A2A4H     0018H     UNIT         ?PR?RESETMENUITEM_DRAWSTYLE?OSD_RESETMENU
            CODE    A2BCH     0018H     UNIT         ?PR?_IRQDELAYMS?AMT_VIDEOPROCESS
            CODE    A2D4H     0017H     UNIT         ?PR?_MISCMSGHANDLE?EVENTHANDLE
            CODE    A2EBH     0017H     UNIT         ?PR?GETPOWERONINPUTSOURCE?OSD_POWERONMENU
            CODE    A302H     0017H     UNIT         ?PR?GETQUICKLYINPUTSOURCE?OSD_QUICKLYSOURCEMENU
            CODE    A319H     0016H     UNIT         ?PR?_ABS?ARKCHIP
            CODE    A32FH     0016H     UNIT         ?PR?_ADJUSTQUICKLYSOURCE?OSD_QUICKLYSOURCEMENU
            CODE    A345H     0016H     UNIT         ?PR?_ADJUSTQUICKLYMUTE?OSD_QUICKLYMUTEMENU
            CODE    A35BH     0015H     UNIT         ?PR?INITIAL_WT5700?WT5700
            CODE    A370H     0014H     UNIT         ?PR?_OSDBLOCKHIDE?ARKCHIP
            CODE    A384H     0013H     UNIT         ?PR?_OSDBLOCKSHOW?ARKCHIP
            CODE    A397H     0013H     UNIT         ?PR?INITIALWATCHDOG?MCU
            CODE    A3AAH     0013H     UNIT         ?PR?_ISSPACE?ISSPACE
            CODE    A3BDH     0012H     UNIT         ?PR?TURNONBACKLIGHT?ARKCHIP
            CODE    A3CFH     0010H     UNIT         ?PR?_DELAYKEYI2C?KEYI2C
            CODE    A3DFH     0010H     UNIT         ?PR?_SIGNALMSGHANDLE?EVENTHANDLE
            CODE    A3EFH     000FH     UNIT         ?PR?_OSDCONFIGBRIGHT?ARKCHIP
            CODE    A3FEH     000FH     UNIT         ?PR?INITMCU?MCU
            CODE    A40DH     000FH     UNIT         ?PR?INITARKCHIP?VIDEOPROC
            CODE    A41CH     000FH     UNIT         ?PR?DISPRESETSTR?OSD_RESETMENU
            CODE    A42BH     000FH     UNIT         ?PR?_ISDIGIT?ISDIGIT
            CODE    A43AH     000EH     UNIT         ?PR?_DELAY?DELAY
            CODE    A448H     000EH     UNIT         ?PR?RESETMENUINDEX?OSD_MENU
            CODE    A456H     000EH     UNIT         ?PR?_IRQDELAYUS?AMT_VIDEOPROCESS
            CODE    A464H     000DH     UNIT         ?PR?BRIGHTNESSMENUITEM_DRAWSTYLE?OSD_BRIGHTNESSMENU
            CODE    A471H     000CH     UNIT         ?PR?_OSDCONFIGCOLORCHANGERGB?ARKCHIP
            CODE    A47DH     000CH     UNIT         ?PR?CONFIGMCUCTRL?GLOBAL
            CODE    A489H     000CH     UNIT         ?PR?_COLORSYSMSGHANDLE?EVENTHANDLE
            CODE    A495H     000CH     UNIT         ?PR?CONTRASTMENUITEM_DRAWSTYLE?OSD_CONTRASTMENU
            CODE    A4A1H     000CH     UNIT         ?PR?SATURATIONMENUITEM_DRAWSTYLE?OSD_SATURATIONMENU
            CODE    A4ADH     000CH     UNIT         ?PR?TINTMENUITEM_DRAWSTYLE?OSD_TINTMENU
            CODE    A4B9H     000CH     UNIT         ?PR?VOLUMEMENUITEM_DRAWSTYLE?OSD_VOLUMEMENU
            CODE    A4C5H     000CH     UNIT         ?CO?OSD_FACTORYMENU
            CODE    A4D1H     000CH     UNIT         ?CO?OSD_FACTORYSWITCHMENU
            CODE    A4DDH     000BH     UNIT         ?PR?_OSDCONFIGBITMAPSTARINDEX?ARKCHIP
            CODE    A4E8H     000BH     UNIT         ?PR?_OSDCOLORCHANGESWITCH?ARKCHIP
            CODE    A4F3H     000BH     UNIT         ?PR?_OSDMSGHANDLE?EVENTHANDLE
            CODE    A4FEH     000BH     UNIT         ?CO?ADCKEYPAD
            CODE    A509H     000AH     UNIT         ?PR?DISABLEWATCHDOG?MCU
            CODE    A513H     000AH     UNIT         ?PR?EXECTMODE?OSD_MODEMENU
            CODE    A51DH     0009H     UNIT         ?PR?_OSDICONSIZE?ARKCHIP
            CODE    A526H     0009H     UNIT         ?PR?_BATTERYADCMSGHANDLE?EVENTHANDLE
            CODE    A52FH     0008H     UNIT         ?PR?OSDHIDE?ARKCHIP
            CODE    A537H     0008H     UNIT         ?PR?INITIALPPORT?MCU
            CODE    A53FH     0008H     UNIT         ?PR?CHECKIDLE?FLASH
            CODE    A547H     0008H     UNIT         ?CO?FLASH
            CODE    A54FH     0008H     UNIT         ?CO?OSD_LOGOMENU
            CODE    A557H     0008H     UNIT         ?PR?GETQUICKLYMUTEVAL?OSD_QUICKLYMUTEMENU
            CODE    A55FH     0008H     UNIT         ?PR?GETBRIGHTNESSVAL?OSD_BRIGHTNESSMENU
            CODE    A567H     0008H     UNIT         ?PR?GETCONTRASTVAL?OSD_CONTRASTMENU
            CODE    A56FH     0008H     UNIT         ?PR?GETSATURATIONVAL?OSD_SATURATIONMENU
BL51 BANKED LINKER/LOCATER V6.22                                                      06/07/2020  11:08:23  PAGE 9


            CODE    A577H     0008H     UNIT         ?PR?GETTINTVAL?OSD_TINTMENU
            CODE    A57FH     0008H     UNIT         ?PR?GETVOLUMEVAL?OSD_VOLUMEMENU
            CODE    A587H     0008H     UNIT         ?PR?GETMODEVAL?OSD_MODEMENU
            CODE    A58FH     0008H     UNIT         ?PR?GETSYSVAL?OSD_SYSMENU
            CODE    A597H     0008H     UNIT         ?PR?GETLANGUAGEVAL?OSD_LANGUAGEMENU
            CODE    A59FH     0008H     UNIT         ?PR?GETIRABVAL?OSD_IRABMENU
            CODE    A5A7H     0008H     UNIT         ?PR?GETRADIOFREQVAL?OSD_RADIOFREQMENU
            CODE    A5AFH     0008H     UNIT         ?PR?HIDEMENU?OSD_MENU
            CODE    A5B7H     0007H     UNIT         ?PR?LOGO1LOGOMENU_ICON?OSD_MENU
            CODE    A5BEH     0007H     UNIT         ?PR?LOGO2LOGOMENU_ICON?OSD_MENU
            CODE    A5C5H     0007H     UNIT         ?PR?LOGO3LOGOMENU_ICON?OSD_MENU
            CODE    A5CCH     0007H     UNIT         ?PR?LOGO4LOGOMENU_ICON?OSD_MENU
            CODE    A5D3H     0007H     UNIT         ?PR?LOGO5LOGOMENU_ICON?OSD_MENU
            CODE    A5DAH     0006H     UNIT         ?PR?_OSDBLOCKENABLE?ARKCHIP
            CODE    A5E0H     0005H     UNIT         ?PR?EXECTSYS?OSD_SYSMENU
            CODE    A5E5H     0003H     UNIT         ?PR?_BTMSGHANDLE?EVENTHANDLE
            CODE    A5E8H     0003H     UNIT         ?PR?_CONFIGVIDEOINPUTSOURCE?VIDEOPROC
            CODE    A5EBH     0003H     UNIT         ?PR?INITOSDBLOCK?OSD_MENU
            CODE    A5EEH     0002H     UNIT         ?CO?VIDEOPROC
            CODE    A5F0H     0002H     UNIT         ?PR?EXECTQUICKLYMUTE?OSD_QUICKLYMUTEMENU
            CODE    A5F2H     0002H     UNIT         ?PR?EXECTVOLUME?OSD_VOLUMEMENU
            CODE    A5F4H     0002H     UNIT         ?PR?EXECTIRAB?OSD_IRABMENU
            CODE    A5F6H     0002H     UNIT         ?PR?EXECTRADIOFREQ?OSD_RADIOFREQMENU
            CODE    A5F8H     0001H     UNIT         ?PR?CONFIGUSERPARASETTING?CONFIGLCDPARA
            CODE    A5F9H     0001H     UNIT         ?PR?CONFIGPANNELSFRDISP?CONFIGLCDPARA
            CODE    A5FAH     0001H     UNIT         ?PR?ENTERLOWPOWERMODE?ARKCHIP
            CODE    A5FBH     0001H     UNIT         ?PR?EXITLOWPOWERMODE?ARKCHIP
            CODE    A5FCH     0001H     UNIT         ?PR?_TURNONDEVICEPOWER?ARKCHIP
            CODE    A5FDH     0001H     UNIT         ?PR?_TURNOFFDEVICEPOWER?ARKCHIP
            CODE    A5FEH     0001H     UNIT         ?PR?PRJVERSIONMSG?GLOBAL
            CODE    A5FFH     0001H     UNIT         ?PR?INITEXTDEVICES?GLOBAL



OVERLAY MAP OF MODULE:   ..\Hex\AMT_CAR_HEX (CONFIGLCDPARA)


SEGMENT                                             BIT_GROUP          DATA_GROUP          XDATA_GROUP
  +--> CALLED SEGMENT                            START    LENGTH     START    LENGTH     START    LENGTH
--------------------------------------------------------------------------------------------------------
?PR?POS_IRQSERVERTIMER1?INTERRUPT                -----    -----      0023H    0001H      -----    -----
  +--> ?PR?_POS_VIDEOPROCESS?AMT_VIDEOPROCESS

?PR?_POS_VIDEOPROCESS?AMT_VIDEOPROCESS           -----    -----      0024H    0003H      -----    -----
  +--> ?PR?_IRQDELAYMS?AMT_VIDEOPROCESS

?PR?_IRQDELAYMS?AMT_VIDEOPROCESS                 -----    -----      -----    -----      -----    -----
  +--> ?PR?_IRQDELAYUS?AMT_VIDEOPROCESS

*** NEW ROOT ***************************************************

?C_C51STARTUP                                    -----    -----      -----    -----      -----    -----
  +--> ?PR?MAIN?MAIN
  +--> ?C_INITSEG

?PR?MAIN?MAIN                                    -----    -----      0027H    0001H      -----    -----
  +--> ?PR?DISABLEWATCHDOG?MCU
BL51 BANKED LINKER/LOCATER V6.22                                                      06/07/2020  11:08:23  PAGE 10


  +--> ?PR?INITSYSTEM?GLOBAL
  +--> ?PR?_MENUPROCESSKEY?OSD_MENU
  +--> ?PR?POS_CLEARWATCHDOG?MCU
  +--> ?PR?POS_GETUSERINPUTMSG?GETSYSMSG
  +--> ?PR?_OSDMSGHANDLE?EVENTHANDLE
  +--> ?PR?POS_GETSIGNALMSG?GETSYSMSG
  +--> ?PR?_SIGNALMSGHANDLE?EVENTHANDLE
  +--> ?PR?POS_GETCOLORSYSMSG?GETSYSMSG
  +--> ?PR?_COLORSYSMSGHANDLE?EVENTHANDLE
  +--> ?PR?POS_GETTIMEMSG?GETSYSMSG
  +--> ?PR?_TIMEMSGHANDLE?EVENTHANDLE
  +--> ?PR?POS_GETUSERDEFINEDMSG?GETSYSMSG
  +--> ?PR?_USERDEFINEDMSGHANDLE?EVENTHANDLE
  +--> ?PR?POS_GETMISCMSG?GETSYSMSG
  +--> ?PR?_MISCMSGHANDLE?EVENTHANDLE

?PR?INITSYSTEM?GLOBAL                            -----    -----      -----    -----      -----    -----
  +--> ?PR?CONFIGMCUCTRL?GLOBAL
  +--> ?PR?INITMCU?MCU
  +--> ?PR?INITSYSWORKVARIABLE?GLOBAL
  +--> ?PR?INITEXTDEVICES?GLOBAL
  +--> ?PR?INITARKCHIP?VIDEOPROC
  +--> ?PR?PRJVERSIONMSG?GLOBAL
  +--> ?PR?GETPROCOMPIELTIME?ARKCHIP

?PR?CONFIGMCUCTRL?GLOBAL                         -----    -----      -----    -----      -----    -----
  +--> ?PR?_CONFIGCRTLMODE?ARKCHIP

?PR?INITMCU?MCU                                  -----    -----      -----    -----      -----    -----
  +--> ?PR?INITIALPPORT?MCU
  +--> ?PR?INITIALTIMER?MCU
  +--> ?PR?INITIALSERIALPORT?MCU
  +--> ?PR?INITIALWATCHDOG?MCU
  +--> ?PR?INITIALEXTINTERRUPT?MCU

?PR?INITIALPPORT?MCU                             -----    -----      -----    -----      -----    -----
  +--> ?PR?_?SETP3_5?SETP3_5

?PR?INITIALSERIALPORT?MCU                        -----    -----      -----    -----      -----    -----
  +--> ?PR?_SETT2BAUDRATE?MCU

?PR?_SETT2BAUDRATE?MCU                           -----    -----      0028H    0004H      -----    -----

?PR?INITSYSWORKVARIABLE?GLOBAL                   -----    -----      -----    -----      -----    -----
  +--> ?PR?INITGLOBALVARIABLES?GLOBAL
  +--> ?PR?AUTODETECTFLASHTYPE?FLASH
  +--> ?PR?READSETTING?SYSWORKPARA

?PR?INITGLOBALVARIABLES?GLOBAL                   -----    -----      -----    -----      -----    -----
  +--> ?PR?_SETMENUINDEX?OSD_MENU

?PR?_SETMENUINDEX?OSD_MENU                       -----    -----      -----    -----      -----    -----
  +--> ?PR?_FINDMENUPAGEINDEX?OSD_MENU

?PR?_FINDMENUPAGEINDEX?OSD_MENU                  -----    -----      -----    -----      005AH    0001H
  +--> ?CO?OSD_MENU

BL51 BANKED LINKER/LOCATER V6.22                                                      06/07/2020  11:08:23  PAGE 11


?CO?OSD_MENU                                     -----    -----      -----    -----      -----    -----
  +--> ?PR?LOGO1LOGOMENU_ICON?OSD_MENU
  +--> ?PR?LOGO2LOGOMENU_ICON?OSD_MENU
  +--> ?PR?LOGO3LOGOMENU_ICON?OSD_MENU
  +--> ?PR?LOGO4LOGOMENU_ICON?OSD_MENU
  +--> ?PR?LOGO5LOGOMENU_ICON?OSD_MENU
  +--> ?PR?POWEROFFSYSTEM?SYSPOWER
  +--> ?CO?OSD_POWERONMENU
  +--> ?PR?POWERONSYSTEM?SYSPOWER
  +--> ?PR?POWERONMENU_CHECKCONDITION?OSD_PO...
  +--> ?CO?OSD_QUICKLYSOURCEMENU
  +--> ?PR?_ADJUSTQUICKLYSOURCE?OSD_QUICKLYS...
  +--> ?PR?EXECTQUICKLYSOURCE?OSD_QUICKLYSOU...
  +--> ?PR?QUICKLYSOURCEMENU_CHECKCONDITION?...
  +--> ?CO?OSD_QUICKLYMUTEMENU
  +--> ?PR?_ADJUSTQUICKLYMUTE?OSD_QUICKLYMUT...
  +--> ?PR?EXECTQUICKLYMUTE?OSD_QUICKLYMUTEMENU
  +--> ?PR?QUICKLYMUTEMENU_CHECKCONDITION?OS...
  +--> ?PR?VOLUMEMENUITEM_DRAWSTYLE?OSD_VOLU...
  +--> ?CO?OSD_VOLUMEMENU
  +--> ?PR?_ADJUSTVOLUME?OSD_VOLUMEMENU
  +--> ?PR?EXECTVOLUME?OSD_VOLUMEMENU
  +--> ?PR?VOLUMEMENU_CHECKCONDITION?OSD_VOL...
  +--> ?PR?MODEMENUITEM_DRAWSTYLE?OSD_MODEMENU
  +--> ?CO?OSD_MODEMENU
  +--> ?PR?_ADJUSTMODE?OSD_MODEMENU
  +--> ?PR?EXECTMODE?OSD_MODEMENU
  +--> ?PR?MODEMENU_CHECKCONDITION?OSD_MODEMENU
  +--> ?PR?SYSMENUITEM_DRAWSTYLE?OSD_SYSMENU
  +--> ?CO?OSD_SYSMENU
  +--> ?PR?_ADJUSTSYS?OSD_SYSMENU
  +--> ?PR?EXECTSYS?OSD_SYSMENU
  +--> ?PR?SYSMENU_CHECKCONDITION?OSD_SYSMENU
  +--> ?PR?BRIGHTNESSMENUITEM_DRAWSTYLE?OSD_...
  +--> ?CO?OSD_BRIGHTNESSMENU
  +--> ?PR?_ADJUSTBRIGHTNESS?OSD_BRIGHTNESSMENU
  +--> ?PR?EXECTBRIGHTNESS?OSD_BRIGHTNESSMENU
  +--> ?PR?BRIGHTNESSMENU_CHECKCONDITION?OSD...
  +--> ?PR?CONTRASTMENUITEM_DRAWSTYLE?OSD_CO...
  +--> ?CO?OSD_CONTRASTMENU
  +--> ?PR?_ADJUSTCONTRAST?OSD_CONTRASTMENU
  +--> ?PR?EXECTCONTRAST?OSD_CONTRASTMENU
  +--> ?PR?CONTRASTMENU_CHECKCONDITION?OSD_C...
  +--> ?PR?SATURATIONMENUITEM_DRAWSTYLE?OSD_...
  +--> ?CO?OSD_SATURATIONMENU
  +--> ?PR?_ADJUSTSATURATION?OSD_SATURATIONMENU
  +--> ?PR?EXECTSATURATION?OSD_SATURATIONMENU
  +--> ?PR?SATURATIONMENU_CHECKCONDITION?OSD...
  +--> ?PR?TINTMENUITEM_DRAWSTYLE?OSD_TINTMENU
  +--> ?CO?OSD_TINTMENU
  +--> ?PR?_ADJUSTTINT?OSD_TINTMENU
  +--> ?PR?EXECTTINT?OSD_TINTMENU
  +--> ?PR?TINTMENU_CHECKCONDITION?OSD_TINTMENU
  +--> ?PR?LANGUAGEMENUITEM_DRAWSTYLE?OSD_LA...
  +--> ?CO?OSD_LANGUAGEMENU
  +--> ?PR?_ADJUSTLANGUAGE?OSD_LANGUAGEMENU
  +--> ?PR?EXECTLANGUAGE?OSD_LANGUAGEMENU
BL51 BANKED LINKER/LOCATER V6.22                                                      06/07/2020  11:08:23  PAGE 12


  +--> ?PR?LANGUAGEMENU_CHECKCONDITION?OSD_L...
  +--> ?PR?IRABMENUITEM_DRAWSTYLE?OSD_IRABMENU
  +--> ?CO?OSD_IRABMENU
  +--> ?PR?_ADJUSTIRAB?OSD_IRABMENU
  +--> ?PR?EXECTIRAB?OSD_IRABMENU
  +--> ?PR?IRABMENU_CHECKCONDITION?OSD_IRABMENU
  +--> ?PR?RADIOFREQMENUITEM_DRAWSTYLE?OSD_R...
  +--> ?CO?OSD_RADIOFREQMENU
  +--> ?PR?_ADJUSTRADIOFREQ?OSD_RADIOFREQMENU
  +--> ?PR?EXECTRADIOFREQ?OSD_RADIOFREQMENU
  +--> ?PR?RADIOFREQMENU_CHECKCONDITION?OSD_...
  +--> ?PR?RESETMENUITEM_DRAWSTYLE?OSD_RESET...
  +--> ?CO?OSD_RESETMENU
  +--> ?PR?EXECTRESET?OSD_RESETMENU
  +--> ?PR?RESETMENU_CHECKCONDITION?OSD_RESE...

?PR?POWEROFFSYSTEM?SYSPOWER                      -----    -----      -----    -----      -----    -----
  +--> ?PR?TURNOFFBACKLIGHT?ARKCHIP
  +--> ?PR?SAVESETTING?SYSWORKPARA
  +--> ?PR?_TURNOFFDEVICEPOWER?ARKCHIP
  +--> ?PR?ENTERLOWPOWERMODE?ARKCHIP
  +--> ?PR?HIDEMENU?OSD_MENU
  +--> ?PR?_DELAYMS?DELAY

?PR?TURNOFFBACKLIGHT?ARKCHIP                     -----    -----      -----    -----      -----    -----
  +--> ?PR?_?SETP3_5?SETP3_5
  +--> ?PR?_DELAYMS?DELAY

?PR?_DELAYMS?DELAY                               -----    -----      -----    -----      -----    -----
  +--> ?PR?_DELAY?DELAY

?PR?SAVESETTING?SYSWORKPARA                      -----    -----      -----    -----      -----    -----
  +--> ?PR?CHECKSETTING?SYSWORKPARA
  +--> ?PR?_CONTSYSCHECKSUM?SYSWORKPARA
  +--> ?PR?_WRITEFLASHSYSPARA?FLASH
  +--> ?PR?_DELAYMS?DELAY

?PR?_CONTSYSCHECKSUM?SYSWORKPARA                 -----    -----      002FH    0005H      0063H    0003H

?PR?_WRITEFLASHSYSPARA?FLASH                     -----    -----      002FH    000CH      -----    -----
  +--> ?PR?_ENABLEFLASHUNPROTECTED?FLASH
  +--> ?PR?_ERASEFLASHSECTOR?FLASH
  +--> ?PR?CHECKIDLE?FLASH
  +--> ?PR?SOFTWAREBLOCKPROTECT?FLASH
  +--> ?PR?WRITEDISABLE?FLASH

?PR?_ENABLEFLASHUNPROTECTED?FLASH                -----    -----      003BH    0004H      -----    -----
  +--> ?PR?SOFTWAREBLOCKUNPROTECT?FLASH
  +--> ?PR?CHECKIDLE?FLASH

?PR?SOFTWAREBLOCKUNPROTECT?FLASH                 -----    -----      -----    -----      -----    -----
  +--> ?PR?CHECKIDLE?FLASH

?PR?_ERASEFLASHSECTOR?FLASH                      -----    -----      003BH    0004H      -----    -----
  +--> ?PR?CHECKIDLE?FLASH

?PR?SOFTWAREBLOCKPROTECT?FLASH                   -----    -----      -----    -----      -----    -----
BL51 BANKED LINKER/LOCATER V6.22                                                      06/07/2020  11:08:23  PAGE 13


  +--> ?PR?CHECKIDLE?FLASH

?PR?WRITEDISABLE?FLASH                           -----    -----      -----    -----      -----    -----
  +--> ?PR?CHECKIDLE?FLASH

?PR?HIDEMENU?OSD_MENU                            -----    -----      -----    -----      -----    -----
  +--> ?PR?OSDHIDE?ARKCHIP
  +--> ?PR?_OSDCOLORCHANGESWITCH?ARKCHIP

?CO?OSD_POWERONMENU                              -----    -----      -----    -----      -----    -----
  +--> ?PR?GETPOWERONINPUTSOURCE?OSD_POWERON...
  +--> ?PR?DISPPOWERONSTR?OSD_POWERONMENU

?PR?DISPPOWERONSTR?OSD_POWERONMENU               -----    -----      -----    -----      -----    -----
  +--> ?PR?GETPOWERONINPUTSOURCE?OSD_POWERON...

?PR?POWERONSYSTEM?SYSPOWER                       -----    -----      -----    -----      -----    -----
  +--> ?PR?EXITLOWPOWERMODE?ARKCHIP
  +--> ?PR?_SELVIDEOINPUTSOURCE?VIDEOPROC
  +--> ?PR?_DELAYMS?DELAY
  +--> ?PR?TURNONBACKLIGHT?ARKCHIP
  +--> ?PR?ENTERLOWPOWERMODE?ARKCHIP

?PR?_SELVIDEOINPUTSOURCE?VIDEOPROC               -----    -----      002FH    0001H      -----    -----
  +--> ?PR?_TURNONDEVICEPOWER?ARKCHIP
  +--> ?PR?_SELVIDEODEVICE?ARKCHIP
  +--> ?PR?_CONFIGDISPZOOMDYNPARA?CONFIGLCDPARA
  +--> ?PR?CONFIGPANNELSFRDISP?CONFIGLCDPARA
  +--> ?PR?_DELAYMS?DELAY
  +--> ?PR?CHECKCOLORSYS?VIDEOPROC
  +--> ?PR?_CONFIGCOLORSYSDYNPARA?CONFIGLCDPARA

?PR?_CONFIGDISPZOOMDYNPARA?CONFIGLCDPARA         -----    -----      0030H    0001H      0063H    0001H
  +--> ?PR?_GETSOURCEID?CONFIGLCDPARA
  +--> ?CO?CONFIGLCDPARA

?PR?_GETSOURCEID?CONFIGLCDPARA                   -----    -----      -----    -----      0065H    0001H
  +--> ?CO?CONFIGLCDPARA

?PR?CHECKCOLORSYS?VIDEOPROC                      -----    -----      -----    -----      0063H    0001H
  +--> ?PR?_DELAYMS?DELAY

?PR?_CONFIGCOLORSYSDYNPARA?CONFIGLCDPARA         -----    -----      0030H    0001H      0063H    0002H
  +--> ?PR?_GETSOURCEID?CONFIGLCDPARA
  +--> ?CO?CONFIGLCDPARA
  +--> ?PR?_DATACURVE?CONFIGLCDPARA
  +--> ?PR?UPDATAPICPARA?CONFIGLCDPARA

?PR?_DATACURVE?CONFIGLCDPARA                     -----    -----      0031H    0005H      0065H    0001H

?PR?UPDATAPICPARA?CONFIGLCDPARA                  -----    -----      -----    -----      -----    -----
  +--> ?PR?_DATACURVE?CONFIGLCDPARA
  +--> ?PR?_TINTCURVE?CONFIGLCDPARA
  +--> ?PR?_SETPWM0?ARKCHIP
  +--> ?PR?_SETPWM1?ARKCHIP
  +--> ?PR?_SETPWM2?ARKCHIP
  +--> ?PR?_SETPWM3?ARKCHIP
BL51 BANKED LINKER/LOCATER V6.22                                                      06/07/2020  11:08:23  PAGE 14



?PR?_TINTCURVE?CONFIGLCDPARA                     -----    -----      -----    -----      0065H    0001H

?PR?_SETPWM0?ARKCHIP                             -----    -----      0031H    0005H      0065H    0009H

?PR?_SETPWM1?ARKCHIP                             -----    -----      0031H    0005H      0065H    0009H

?PR?_SETPWM2?ARKCHIP                             -----    -----      0031H    0005H      0065H    0009H

?PR?_SETPWM3?ARKCHIP                             -----    -----      0031H    0005H      0065H    0009H

?PR?TURNONBACKLIGHT?ARKCHIP                      -----    -----      -----    -----      -----    -----
  +--> ?PR?_DELAYMS?DELAY
  +--> ?PR?_?SETP3_5?SETP3_5

?PR?POWERONMENU_CHECKCONDITION?OSD_PO...         -----    -----      -----    -----      0063H    0003H
  +--> ?CO?OSD_POWERONMENU

?CO?OSD_QUICKLYSOURCEMENU                        -----    -----      -----    -----      -----    -----
  +--> ?PR?GETQUICKLYINPUTSOURCE?OSD_QUICKLY...
  +--> ?PR?DISPQUICKLYSOURCESTR?OSD_QUICKLYS...

?PR?DISPQUICKLYSOURCESTR?OSD_QUICKLYS...         -----    -----      -----    -----      -----    -----
  +--> ?PR?GETQUICKLYINPUTSOURCE?OSD_QUICKLY...

?PR?_ADJUSTQUICKLYSOURCE?OSD_QUICKLYS...         -----    -----      -----    -----      -----    -----
  +--> ?PR?_SELNEXTVIDEOSOURCE?VIDEOPROC

?PR?_SELNEXTVIDEOSOURCE?VIDEOPROC                -----    -----      -----    -----      0063H    0001H
  +--> ?CO?VIDEOPROC

?PR?EXECTQUICKLYSOURCE?OSD_QUICKLYSOU...         -----    -----      -----    -----      -----    -----
  +--> ?PR?TURNOFFBACKLIGHT?ARKCHIP
  +--> ?PR?EXITLOWPOWERMODE?ARKCHIP
  +--> ?PR?HIDEMENU?OSD_MENU
  +--> ?PR?_SELVIDEOINPUTSOURCE?VIDEOPROC
  +--> ?PR?_DELAYMS?DELAY
  +--> ?PR?TURNONBACKLIGHT?ARKCHIP
  +--> ?PR?ENTERLOWPOWERMODE?ARKCHIP

?PR?QUICKLYSOURCEMENU_CHECKCONDITION?...         -----    -----      -----    -----      0063H    0003H
  +--> ?CO?OSD_QUICKLYSOURCEMENU

?CO?OSD_QUICKLYMUTEMENU                          -----    -----      -----    -----      -----    -----
  +--> ?PR?GETQUICKLYMUTEVAL?OSD_QUICKLYMUTE...
  +--> ?PR?DISPQUICKLYMUTESTR?OSD_QUICKLYMUT...

?PR?DISPQUICKLYMUTESTR?OSD_QUICKLYMUT...         -----    -----      -----    -----      -----    -----
  +--> ?PR?GETQUICKLYMUTEVAL?OSD_QUICKLYMUTE...

?PR?QUICKLYMUTEMENU_CHECKCONDITION?OS...         -----    -----      -----    -----      0063H    0003H
  +--> ?CO?OSD_QUICKLYMUTEMENU

?PR?VOLUMEMENUITEM_DRAWSTYLE?OSD_VOLU...         -----    -----      -----    -----      -----    -----
  +--> ?PR?_OSDWNDCLEAR?ARKCHIP

?PR?_OSDWNDCLEAR?ARKCHIP                         -----    -----      002FH    0004H      0063H    0006H
BL51 BANKED LINKER/LOCATER V6.22                                                      06/07/2020  11:08:23  PAGE 15


  +--> ?PR?OSDGETSTARTINDEXADDR?ARKCHIP
  +--> ?PR?OSDGETWNDWIDTH?ARKCHIP

?PR?OSDGETSTARTINDEXADDR?ARKCHIP                 -----    -----      -----    -----      006BH    0002H

?CO?OSD_VOLUMEMENU                               -----    -----      -----    -----      -----    -----
  +--> ?PR?GETVOLUMEVAL?OSD_VOLUMEMENU
  +--> ?PR?VOLUMEMENU_TITELSTR?OSD_VOLUMEMENU

?PR?VOLUMEMENU_CHECKCONDITION?OSD_VOL...         -----    -----      -----    -----      0063H    0003H
  +--> ?CO?OSD_VOLUMEMENU

?PR?MODEMENUITEM_DRAWSTYLE?OSD_MODEMENU          -----    -----      -----    -----      -----    -----
  +--> ?PR?_OSDWNDCLEAR?ARKCHIP

?CO?OSD_MODEMENU                                 -----    -----      -----    -----      -----    -----
  +--> ?PR?GETMODEVAL?OSD_MODEMENU
  +--> ?PR?DISPMODESTR?OSD_MODEMENU
  +--> ?PR?MODEMENU_TITELSTR?OSD_MODEMENU

?PR?DISPMODESTR?OSD_MODEMENU                     -----    -----      -----    -----      -----    -----
  +--> ?PR?GETMODEVAL?OSD_MODEMENU

?PR?EXECTMODE?OSD_MODEMENU                       -----    -----      -----    -----      -----    -----
  +--> ?PR?_CONFIGDISPZOOMDYNPARA?CONFIGLCDPARA

?PR?MODEMENU_CHECKCONDITION?OSD_MODEMENU         -----    -----      -----    -----      0063H    0003H
  +--> ?CO?OSD_MODEMENU

?PR?SYSMENUITEM_DRAWSTYLE?OSD_SYSMENU            -----    -----      -----    -----      -----    -----
  +--> ?PR?_OSDWNDCLEAR?ARKCHIP

?CO?OSD_SYSMENU                                  -----    -----      -----    -----      -----    -----
  +--> ?PR?GETSYSVAL?OSD_SYSMENU
  +--> ?PR?DISPSYSSTR?OSD_SYSMENU
  +--> ?PR?SYSMENU_TITELSTR?OSD_SYSMENU

?PR?DISPSYSSTR?OSD_SYSMENU                       -----    -----      -----    -----      -----    -----
  +--> ?PR?GETSYSVAL?OSD_SYSMENU

?PR?EXECTSYS?OSD_SYSMENU                         -----    -----      -----    -----      -----    -----
  +--> ?PR?CONFIGPANNELSFRDISP?CONFIGLCDPARA

?PR?SYSMENU_CHECKCONDITION?OSD_SYSMENU           -----    -----      -----    -----      0063H    0003H
  +--> ?CO?OSD_SYSMENU

?PR?BRIGHTNESSMENUITEM_DRAWSTYLE?OSD_...         -----    -----      -----    -----      -----    -----
  +--> ?PR?_OSDWNDCLEAR?ARKCHIP

?CO?OSD_BRIGHTNESSMENU                           -----    -----      -----    -----      -----    -----
  +--> ?PR?GETBRIGHTNESSVAL?OSD_BRIGHTNESSMENU
  +--> ?PR?BRIGHTNESSMENU_TITELSTR?OSD_BRIGH...

?PR?EXECTBRIGHTNESS?OSD_BRIGHTNESSMENU           -----    -----      -----    -----      -----    -----
  +--> ?PR?UPDATAPICPARA?CONFIGLCDPARA

?PR?BRIGHTNESSMENU_CHECKCONDITION?OSD...         -----    -----      -----    -----      0063H    0003H
BL51 BANKED LINKER/LOCATER V6.22                                                      06/07/2020  11:08:23  PAGE 16


  +--> ?CO?OSD_BRIGHTNESSMENU

?PR?CONTRASTMENUITEM_DRAWSTYLE?OSD_CO...         -----    -----      -----    -----      -----    -----
  +--> ?PR?_OSDWNDCLEAR?ARKCHIP

?CO?OSD_CONTRASTMENU                             -----    -----      -----    -----      -----    -----
  +--> ?PR?GETCONTRASTVAL?OSD_CONTRASTMENU
  +--> ?PR?CONTRASTMENU_TITELSTR?OSD_CONTRAS...

?PR?EXECTCONTRAST?OSD_CONTRASTMENU               -----    -----      -----    -----      -----    -----
  +--> ?PR?UPDATAPICPARA?CONFIGLCDPARA

?PR?CONTRASTMENU_CHECKCONDITION?OSD_C...         -----    -----      -----    -----      0063H    0003H
  +--> ?CO?OSD_CONTRASTMENU

?PR?SATURATIONMENUITEM_DRAWSTYLE?OSD_...         -----    -----      -----    -----      -----    -----
  +--> ?PR?_OSDWNDCLEAR?ARKCHIP

?CO?OSD_SATURATIONMENU                           -----    -----      -----    -----      -----    -----
  +--> ?PR?GETSATURATIONVAL?OSD_SATURATIONMENU
  +--> ?PR?SATURATIONMENU_TITELSTR?OSD_SATUR...

?PR?EXECTSATURATION?OSD_SATURATIONMENU           -----    -----      -----    -----      -----    -----
  +--> ?PR?UPDATAPICPARA?CONFIGLCDPARA

?PR?SATURATIONMENU_CHECKCONDITION?OSD...         -----    -----      -----    -----      0063H    0003H
  +--> ?CO?OSD_SATURATIONMENU

?PR?TINTMENUITEM_DRAWSTYLE?OSD_TINTMENU          -----    -----      -----    -----      -----    -----
  +--> ?PR?_OSDWNDCLEAR?ARKCHIP

?CO?OSD_TINTMENU                                 -----    -----      -----    -----      -----    -----
  +--> ?PR?GETTINTVAL?OSD_TINTMENU
  +--> ?PR?TINTMENU_TITELSTR?OSD_TINTMENU

?PR?EXECTTINT?OSD_TINTMENU                       -----    -----      -----    -----      -----    -----
  +--> ?PR?UPDATAPICPARA?CONFIGLCDPARA

?PR?TINTMENU_CHECKCONDITION?OSD_TINTMENU         -----    -----      -----    -----      0063H    0003H
  +--> ?CO?OSD_TINTMENU

?PR?LANGUAGEMENUITEM_DRAWSTYLE?OSD_LA...         -----    -----      -----    -----      -----    -----
  +--> ?PR?_OSDWNDCLEAR?ARKCHIP

?CO?OSD_LANGUAGEMENU                             -----    -----      -----    -----      -----    -----
  +--> ?PR?DISPLANGUAGESTR?OSD_LANGUAGEMENU

?PR?DISPLANGUAGESTR?OSD_LANGUAGEMENU             -----    -----      -----    -----      -----    -----
  +--> ?PR?GETLANGUAGEVAL?OSD_LANGUAGEMENU

?PR?EXECTLANGUAGE?OSD_LANGUAGEMENU               -----    -----      -----    -----      -----    -----
  +--> ?PR?_OSDWNDCLEAR?ARKCHIP
  +--> ?PR?_?DRAWOSDTITEL?OSD_MENU

?PR?_?DRAWOSDTITEL?OSD_MENU                      -----    -----      -----    -----      -----    -----
  +--> ?PR?_OSDDRAWSTR?ARKCHIP

BL51 BANKED LINKER/LOCATER V6.22                                                      06/07/2020  11:08:23  PAGE 17


?PR?_OSDDRAWSTR?ARKCHIP                          -----    -----      0037H    0006H      0065H    0006H
  +--> ?PR?OSDGETSTARTINDEXADDR?ARKCHIP
  +--> ?PR?OSDGETWNDWIDTH?ARKCHIP
  +--> ?CO?ARKCHIP

?PR?LANGUAGEMENU_CHECKCONDITION?OSD_L...         -----    -----      -----    -----      0063H    0003H
  +--> ?CO?OSD_LANGUAGEMENU

?PR?IRABMENUITEM_DRAWSTYLE?OSD_IRABMENU          -----    -----      -----    -----      -----    -----
  +--> ?PR?_OSDWNDCLEAR?ARKCHIP

?CO?OSD_IRABMENU                                 -----    -----      -----    -----      -----    -----
  +--> ?PR?GETIRABVAL?OSD_IRABMENU
  +--> ?PR?DISPIRABSTR?OSD_IRABMENU
  +--> ?PR?IRABMENU_TITELSTR?OSD_IRABMENU

?PR?DISPIRABSTR?OSD_IRABMENU                     -----    -----      -----    -----      -----    -----
  +--> ?PR?GETIRABVAL?OSD_IRABMENU

?PR?IRABMENU_CHECKCONDITION?OSD_IRABMENU         -----    -----      -----    -----      0063H    0003H
  +--> ?CO?OSD_IRABMENU

?PR?RADIOFREQMENUITEM_DRAWSTYLE?OSD_R...         -----    -----      -----    -----      -----    -----
  +--> ?PR?_OSDWNDCLEAR?ARKCHIP

?CO?OSD_RADIOFREQMENU                            -----    -----      -----    -----      -----    -----
  +--> ?PR?GETRADIOFREQVAL?OSD_RADIOFREQMENU
  +--> ?PR?DISPRADIOFREQSTR?OSD_RADIOFREQMENU
  +--> ?PR?RADIOFREQMENU_TITELSTR?OSD_RADIOF...

?PR?DISPRADIOFREQSTR?OSD_RADIOFREQMENU           -----    -----      -----    -----      -----    -----
  +--> ?PR?GETRADIOFREQVAL?OSD_RADIOFREQMENU

?PR?RADIOFREQMENU_CHECKCONDITION?OSD_...         -----    -----      -----    -----      0063H    0003H
  +--> ?CO?OSD_RADIOFREQMENU

?PR?RESETMENUITEM_DRAWSTYLE?OSD_RESET...         -----    -----      -----    -----      -----    -----
  +--> ?PR?_OSDWNDCLEAR?ARKCHIP

?CO?OSD_RESETMENU                                -----    -----      -----    -----      -----    -----
  +--> ?PR?DISPRESETSTR?OSD_RESETMENU
  +--> ?PR?RESETMENU_TITELSTR?OSD_RESETMENU

?PR?EXECTRESET?OSD_RESETMENU                     -----    -----      -----    -----      -----    -----
  +--> ?PR?_CONFIGDISPZOOMDYNPARA?CONFIGLCDPARA
  +--> ?PR?UPDATAPICPARA?CONFIGLCDPARA

?PR?RESETMENU_CHECKCONDITION?OSD_RESE...         -----    -----      -----    -----      0063H    0003H
  +--> ?CO?OSD_RESETMENU

?PR?AUTODETECTFLASHTYPE?FLASH                    -----    -----      -----    -----      0058H    0001H
  +--> ?PR?_VERIFYFLASHDATE?FLASH
  +--> ?CO?FLASH
  +--> ?PR?_WRITEFLASHSYSPARA?FLASH
  +--> ?PR?_ENABLEFLASHUNPROTECTED?FLASH
  +--> ?PR?_ERASEFLASHSECTOR?FLASH

BL51 BANKED LINKER/LOCATER V6.22                                                      06/07/2020  11:08:23  PAGE 18


?PR?_VERIFYFLASHDATE?FLASH                       -----    -----      0028H    0004H      0059H    0001H
  +--> ?PR?_READFLASHSYSPARA?FLASH

?PR?_READFLASHSYSPARA?FLASH                      -----    -----      002CH    000BH      -----    -----
  +--> ?PR?WRITEDISABLE?FLASH
  +--> ?PR?SOFTWAREBLOCKPROTECT?FLASH
  +--> ?PR?CHECKIDLE?FLASH

?PR?READSETTING?SYSWORKPARA                      -----    -----      -----    -----      -----    -----
  +--> ?PR?_VERIFYFLASHDATE?FLASH
  +--> ?PR?_VERIFYSETTING?SYSWORKPARA
  +--> ?PR?CHECKSETTING?SYSWORKPARA
  +--> ?PR?RESETSETTING?SYSWORKPARA
  +--> ?CO?FLASH
  +--> ?PR?SAVESETTING?SYSWORKPARA

?PR?_VERIFYSETTING?SYSWORKPARA                   -----    -----      0028H    0006H      0058H    0003H

?PR?INITARKCHIP?VIDEOPROC                        -----    -----      -----    -----      -----    -----
  +--> ?PR?INITGLOBALPARA?ARKCHIP
  +--> ?PR?INITOSDBLOCK?OSD_MENU
  +--> ?PR?INITOSD?OSD_MENU
  +--> ?PR?INITADC?ARKCHIP
  +--> ?PR?INITCARREVERSING?ARKCHIP

?PR?INITGLOBALPARA?ARKCHIP                       -----    -----      -----    -----      -----    -----
  +--> ?PR?INITAMT?AMT_STATIC_INIT
  +--> ?PR?CONFIGPADMUXPARA?CONFIGLCDPARA
  +--> ?PR?_CONFIGSTATICPARA?CONFIGLCDPARA
  +--> ?PR?_SELVIDEODEVICE?ARKCHIP
  +--> ?PR?_CONFIGDISPZOOMDYNPARA?CONFIGLCDPARA
  +--> ?PR?_CONFIGCOLORSYSDYNPARA?CONFIGLCDPARA
  +--> ?PR?CONFIGUSERPARASETTING?CONFIGLCDPARA
  +--> ?PR?_DELAYMS?DELAY

?PR?CONFIGPADMUXPARA?CONFIGLCDPARA               -----    -----      -----    -----      0058H    0002H
  +--> ?CO?CONFIGLCDPARA

?PR?_CONFIGSTATICPARA?CONFIGLCDPARA              -----    -----      -----    -----      0058H    0003H
  +--> ?PR?_GETSOURCEID?CONFIGLCDPARA
  +--> ?CO?CONFIGLCDPARA

?PR?INITOSDBLOCK?OSD_MENU                        -----    -----      -----    -----      -----    -----
  +--> ?PR?CONFIGOSDBLOCKSTARINDEXADDR?OSD_MENU

?PR?CONFIGOSDBLOCKSTARINDEXADDR?OSD_MENU         -----    -----      -----    -----      0058H    000BH
  +--> ?CO?OSD_MENU
  +--> ?PR?_OSDCONFIGBLOCKINDEXSTARADDR?ARKCHIP

?PR?INITOSD?OSD_MENU                             -----    -----      -----    -----      -----    -----
  +--> ?PR?OSDHIDE?ARKCHIP
  +--> ?PR?OSDCLEAR?ARKCHIP
  +--> ?PR?OSDCOFIGPALETTE?ARKCHIP
  +--> ?PR?_OSDICONSIZE?ARKCHIP
  +--> ?PR?_OSDCONFIGALPHA?ARKCHIP
  +--> ?PR?_OSDCONFIGBITMAPSTARINDEX?ARKCHIP
  +--> ?PR?_OSDCONFIGBRIGHT?ARKCHIP
BL51 BANKED LINKER/LOCATER V6.22                                                      06/07/2020  11:08:23  PAGE 19


  +--> ?CO?OSD_AMT630FONTLIB
  +--> ?PR?_DMALOADFONTRAM?ARKCHIP
  +--> ?PR?_LOADMULCHARTOFONTRAM?ARKCHIP

?PR?OSDCLEAR?ARKCHIP                             -----    -----      -----    -----      0058H    0002H

?PR?_DMALOADFONTRAM?ARKCHIP                      -----    -----      002AH    0008H      -----    -----

?PR?_LOADMULCHARTOFONTRAM?ARKCHIP                -----    -----      002AH    0005H      0058H    0005H

?PR?GETPROCOMPIELTIME?ARKCHIP                    -----    -----      -----    -----      0058H    001BH
  +--> ?CO?ARKCHIP
  +--> ?PR?_ATOI?ATOI

?PR?_ATOI?ATOI                                   0022H.3  0000H.1    0028H    0005H      -----    -----
  +--> ?PR?_ISSPACE?ISSPACE
  +--> ?PR?_ISDIGIT?ISDIGIT

?PR?_MENUPROCESSKEY?OSD_MENU                     -----    -----      -----    -----      -----    -----
  +--> ?PR?_EXECTCOMD?OSD_MENU
  +--> ?CO?OSD_MENU

?PR?_EXECTCOMD?OSD_MENU                          0022H.3  0000H.1    0029H    0001H      -----    -----
  +--> ?CO?OSD_MENU
  +--> ?PR?_DRAWOSDMENUITEMVALUE?OSD_MENU
  +--> ?PR?_?DRAWOSDMENUITEM?OSD_MENU
  +--> ?PR?GETNEXTITEM?OSD_MENU
  +--> ?PR?GETPREVITEM?OSD_MENU
  +--> ?PR?_FINDMENUPAGEINDEX?OSD_MENU
  +--> ?PR?_SETMENUINDEX?OSD_MENU
  +--> ?PR?GETNEXTMENU?OSD_MENU
  +--> ?PR?GETPREMENU?OSD_MENU
  +--> ?PR?_OSDBLOCKENABLE?ARKCHIP
  +--> ?PR?_OSDCONFIGSCALER?ARKCHIP
  +--> ?PR?DRAWOSDMENU?OSD_MENU
  +--> ?PR?HIDEMENU?OSD_MENU
  +--> ?PR?_DELAYMS?DELAY
  +--> ?PR?_SETVDETESTSWITCH?ARKCHIP
  +--> ?PR?_OSDICONSIZE?ARKCHIP
  +--> ?PR?RESETMENUINDEX?OSD_MENU
  +--> ?PR?INITOSD?OSD_MENU
  +--> ?PR?_OSDBLOCKHIDE?ARKCHIP
  +--> ?PR?TURNONBACKLIGHT?ARKCHIP
  +--> ?PR?TURNOFFBACKLIGHT?ARKCHIP
  +--> ?PR?SAVESETTING?SYSWORKPARA
  +--> ?PR?_SELVIDEOINPUTSOURCE?VIDEOPROC
  +--> ?PR?EXITLOWPOWERMODE?ARKCHIP
  +--> ?PR?_TURNOFFDEVICEPOWER?ARKCHIP
  +--> ?PR?ENTERLOWPOWERMODE?ARKCHIP
  +--> ?PR?DRAWSPECIALOSDMENU?OSD_MENU

?PR?_DRAWOSDMENUITEMVALUE?OSD_MENU               -----    -----      002AH    0005H      -----    -----
  +--> ?CO?OSD_MENU
  +--> ?PR?_DRAWOSDMENUITEMNUMBER?OSD_MENU
  +--> ?PR?_DRAWOSDMENUITEMGUAGE?OSD_MENU
  +--> ?PR?_DRAWOSDMENUITEMOPTION?OSD_MENU

BL51 BANKED LINKER/LOCATER V6.22                                                      06/07/2020  11:08:23  PAGE 20


?PR?_DRAWOSDMENUITEMNUMBER?OSD_MENU              -----    -----      002FH    0003H      005CH    0002H
  +--> ?PR?_OSDDRAWNUM?ARKCHIP
  +--> ?PR?_OSDDRAWHEX?ARKCHIP

?PR?_OSDDRAWNUM?ARKCHIP                          -----    -----      0032H    0005H      005EH    0007H
  +--> ?CO?ARKCHIP
  +--> ?PR?_OSDDRAWSTR?ARKCHIP

?PR?_OSDDRAWHEX?ARKCHIP                          -----    -----      0032H    0005H      005EH    0005H
  +--> ?CO?ARKCHIP
  +--> ?PR?_OSDDRAWSTR?ARKCHIP

?PR?_DRAWOSDMENUITEMGUAGE?OSD_MENU               -----    -----      002FH    0003H      005CH    0002H
  +--> ?PR?_OSDDRAWGUAGE?ARKCHIP

?PR?_OSDDRAWGUAGE?ARKCHIP                        -----    -----      0032H    0005H      005EH    0008H
  +--> ?PR?OSDGETSTARTINDEXADDR?ARKCHIP
  +--> ?PR?OSDGETWNDWIDTH?ARKCHIP
  +--> ?CO?ARKCHIP

?PR?_DRAWOSDMENUITEMOPTION?OSD_MENU              -----    -----      002FH    0003H      005CH    0002H
  +--> ?PR?_OSDDRAWSTR?ARKCHIP

?PR?_?DRAWOSDMENUITEM?OSD_MENU                   -----    -----      -----    -----      -----    -----
  +--> ?CO?OSD_MENU
  +--> ?PR?_DRAWOSDICON?OSD_MENU
  +--> ?PR?_?DRAWOSDTITEL?OSD_MENU
  +--> ?PR?_DRAWOSDMENUITEMVALUE?OSD_MENU

?PR?_DRAWOSDICON?OSD_MENU                        -----    -----      002AH    0005H      005CH    0001H
  +--> ?CO?OSD_MENU
  +--> ?PR?_OSDDRAWICON?ARKCHIP

?PR?_OSDDRAWICON?ARKCHIP                         -----    -----      002FH    0008H      005DH    0008H
  +--> ?PR?OSDGETSTARTINDEXADDR?ARKCHIP
  +--> ?PR?OSDGETWNDWIDTH?ARKCHIP

?PR?GETNEXTITEM?OSD_MENU                         -----    -----      -----    -----      0058H    0002H
  +--> ?CO?OSD_MENU

?PR?GETPREVITEM?OSD_MENU                         -----    -----      -----    -----      0058H    0002H
  +--> ?CO?OSD_MENU

?PR?GETNEXTMENU?OSD_MENU                         -----    -----      -----    -----      0058H    0002H
  +--> ?CO?OSD_MENU
  +--> ?PR?_SETMENUINDEX?OSD_MENU

?PR?GETPREMENU?OSD_MENU                          -----    -----      -----    -----      0058H    0002H
  +--> ?CO?OSD_MENU

?PR?DRAWOSDMENU?OSD_MENU                         -----    -----      -----    -----      0058H    0004H
  +--> ?CO?OSD_MENU
  +--> ?PR?HIDEMENU?OSD_MENU
  +--> ?PR?_OSDBLOCKCLEAR?ARKCHIP
  +--> ?PR?_OSDCONFIGWNDSIZE?ARKCHIP
  +--> ?PR?_OSDCONFIGWNDPOSITION?ARKCHIP
  +--> ?PR?_OSDCONFIGBLOCKCOLOR?ARKCHIP
BL51 BANKED LINKER/LOCATER V6.22                                                      06/07/2020  11:08:23  PAGE 21


  +--> ?PR?_DRAWOSDICON?OSD_MENU
  +--> ?PR?_?DRAWOSDTITEL?OSD_MENU
  +--> ?PR?_?DRAWOSDMENUITEM?OSD_MENU
  +--> ?PR?_OSDBLOCKSHOW?ARKCHIP

?PR?_OSDBLOCKCLEAR?ARKCHIP                       -----    -----      -----    -----      005CH    0004H
  +--> ?PR?_OSDBLOCKENABLE?ARKCHIP
  +--> ?PR?OSDGETSTARTINDEXADDR?ARKCHIP
  +--> ?PR?OSDGETBLOCKSIZE?ARKCHIP

?PR?OSDGETBLOCKSIZE?ARKCHIP                      -----    -----      -----    -----      0060H    0002H

?PR?_OSDCONFIGWNDPOSITION?ARKCHIP                -----    -----      002AH    0002H      -----    -----

?PR?_OSDCONFIGBLOCKCOLOR?ARKCHIP                 -----    -----      -----    -----      005CH    0004H
  +--> ?PR?OSDGETSTARTINDEXADDR?ARKCHIP
  +--> ?PR?OSDGETBLOCKSIZE?ARKCHIP

?PR?_SETVDETESTSWITCH?ARKCHIP                    -----    -----      -----    -----      -----    -----
  +--> ?PR?_DELAYMS?DELAY

?PR?RESETMENUINDEX?OSD_MENU                      -----    -----      -----    -----      -----    -----
  +--> ?PR?_SETMENUINDEX?OSD_MENU

?PR?DRAWSPECIALOSDMENU?OSD_MENU                  -----    -----      -----    -----      0058H    0004H
  +--> ?CO?OSD_MENU
  +--> ?PR?HIDEMENU?OSD_MENU
  +--> ?PR?_OSDBLOCKCLEAR?ARKCHIP
  +--> ?PR?_OSDCONFIGWNDSIZE?ARKCHIP
  +--> ?PR?_OSDCONFIGWNDPOSITION?ARKCHIP
  +--> ?PR?_OSDCONFIGBLOCKCOLOR?ARKCHIP
  +--> ?PR?_DRAWOSDICON?OSD_MENU
  +--> ?PR?_?DRAWOSDTITEL?OSD_MENU
  +--> ?PR?_?DRAWOSDMENUITEM?OSD_MENU
  +--> ?PR?_OSDBLOCKSHOW?ARKCHIP

?PR?POS_GETUSERINPUTMSG?GETSYSMSG                0022H.3  0000H.1    -----    -----      0058H    0001H
  +--> ?PR?POS_GETKEYPADMSG?GETUSERINPUTMSG

?PR?POS_GETKEYPADMSG?GETUSERINPUTMSG             -----    -----      0028H    0006H      -----    -----
  +--> ?CO?GETUSERINPUTMSG
  +--> ?PR?POS_GETADCKEYVALUE?ADCKEYPAD
  +--> ?PR?POS_TRANSFERADCKEYCMD?GETUSERINPU...
  +--> ?PR?POS_GETI2CKEYVALUE?TOUCHKEYPAD
  +--> ?PR?POS_TRANSFERI2CKEYCMD?GETUSERINPU...
  +--> ?PR?_POS_TRANSFERKEYMSG?GETUSERINPUTMSG

?PR?POS_GETADCKEYVALUE?ADCKEYPAD                 -----    -----      -----    -----      0059H    0007H
  +--> ?CO?ADCKEYPAD
  +--> ?PR?_POS_ENABLECHIPADC?ARKCHIP
  +--> ?PR?_POS_FILTERADCKEYVAL?ADCKEYPAD
  +--> ?PR?_POS_RELEASEADCKEY?ADCKEYPAD

?PR?_POS_ENABLECHIPADC?ARKCHIP                   -----    -----      -----    -----      0060H    0002H

?PR?_POS_FILTERADCKEYVAL?ADCKEYPAD               0022H.4  0000H.1    002EH    0004H      0060H    0004H
  +--> ?PR?_ABS?ARKCHIP
BL51 BANKED LINKER/LOCATER V6.22                                                      06/07/2020  11:08:23  PAGE 22


  +--> ?PR?_POS_GETBESTADCKEYVAL?ADCKEYPAD

?PR?_POS_GETBESTADCKEYVAL?ADCKEYPAD              -----    -----      0032H    0004H      0064H    0007H
  +--> ?PR?_ABS?ARKCHIP

?PR?_POS_RELEASEADCKEY?ADCKEYPAD                 -----    -----      002EH    0002H      0060H    0005H
  +--> ?CO?ADCKEYPAD

?PR?POS_TRANSFERADCKEYCMD?GETUSERINPU...         -----    -----      002EH    0005H      0059H    0003H
  +--> ?CO?GETUSERINPUTMSG
  +--> ?PR?_ABS?ARKCHIP

?PR?POS_GETI2CKEYVALUE?TOUCHKEYPAD               -----    -----      -----    -----      0059H    0008H
  +--> ?CO?TOUCHKEYPAD
  +--> ?PR?_READWT5700?WT5700

?PR?_READWT5700?WT5700                           -----    -----      002EH    0001H      0061H    0002H
  +--> ?PR?KEYI2CSTART?KEYI2C
  +--> ?PR?_DELAYKEYI2C?KEYI2C
  +--> ?PR?_KEYI2CWRITE?KEYI2C
  +--> ?PR?KEYACKCHECK?KEYI2C
  +--> ?PR?KEYI2CSTOP?KEYI2C
  +--> ?PR?KEYI2CREAD?KEYI2C
  +--> ?PR?KEYNACKSEND?KEYI2C

?PR?KEYI2CSTART?KEYI2C                           -----    -----      -----    -----      -----    -----
  +--> ?PR?_DELAYKEYI2C?KEYI2C
  +--> ?PR?_?SETP1_0?SETP1_0
  +--> ?PR?_?SETP1_1?SETP1_1

?PR?_KEYI2CWRITE?KEYI2C                          -----    -----      002FH    0001H      0063H    0001H
  +--> ?PR?_?SETP1_0?SETP1_0
  +--> ?PR?_DELAYKEYI2C?KEYI2C
  +--> ?PR?_?SETP1_1?SETP1_1

?PR?KEYACKCHECK?KEYI2C                           -----    -----      002FH    0001H      -----    -----
  +--> ?PR?_?GETP1_0?GETP1_0
  +--> ?PR?_DELAYKEYI2C?KEYI2C
  +--> ?PR?_?SETP1_1?SETP1_1

?PR?KEYI2CSTOP?KEYI2C                            -----    -----      -----    -----      -----    -----
  +--> ?PR?_?SETP1_0?SETP1_0
  +--> ?PR?_?SETP1_1?SETP1_1
  +--> ?PR?_DELAYKEYI2C?KEYI2C

?PR?KEYI2CREAD?KEYI2C                            -----    -----      -----    -----      0063H    0002H
  +--> ?PR?_?GETP1_0?GETP1_0
  +--> ?PR?_?SETP1_1?SETP1_1
  +--> ?PR?_DELAYKEYI2C?KEYI2C

?PR?KEYNACKSEND?KEYI2C                           -----    -----      -----    -----      -----    -----
  +--> ?PR?_?SETP1_0?SETP1_0
  +--> ?PR?_DELAYKEYI2C?KEYI2C
  +--> ?PR?_?SETP1_1?SETP1_1

?PR?POS_TRANSFERI2CKEYCMD?GETUSERINPU...         -----    -----      002EH    0005H      0059H    0002H
  +--> ?CO?GETUSERINPUTMSG
BL51 BANKED LINKER/LOCATER V6.22                                                      06/07/2020  11:08:23  PAGE 23



?PR?_POS_TRANSFERKEYMSG?GETUSERINPUTMSG          -----    -----      002EH    0001H      0059H    0006H
  +--> ?CO?GETUSERINPUTMSG

?PR?_OSDMSGHANDLE?EVENTHANDLE                    -----    -----      -----    -----      -----    -----
  +--> ?PR?_KEYMSGPROCESS?OSD_MENU
  +--> ?PR?_MENUPROCESSKEY?OSD_MENU

?PR?_KEYMSGPROCESS?OSD_MENU                      -----    -----      -----    -----      -----    -----
  +--> ?PR?_FINDCOMDINCURMENUITEM?OSD_MENU

?PR?_FINDCOMDINCURMENUITEM?OSD_MENU              -----    -----      0028H    0001H      0058H    0002H
  +--> ?CO?OSD_MENU
  +--> ?PR?_FINDMENUPAGEINDEX?OSD_MENU

?PR?POS_GETSIGNALMSG?GETSYSMSG                   0022H.3  0000H.1    -----    -----      -----    -----

?PR?_SIGNALMSGHANDLE?EVENTHANDLE                 -----    -----      -----    -----      -----    -----
  +--> ?PR?_MENUPROCESSKEY?OSD_MENU

?PR?POS_GETCOLORSYSMSG?GETSYSMSG                 0022H.3  0000H.1    -----    -----      -----    -----

?PR?_COLORSYSMSGHANDLE?EVENTHANDLE               -----    -----      -----    -----      -----    -----
  +--> ?PR?_CONFIGCOLORSYSDYNPARA?CONFIGLCDPARA

?PR?POS_GETTIMEMSG?GETSYSMSG                     0022H.3  0000H.1    -----    -----      -----    -----

?PR?_TIMEMSGHANDLE?EVENTHANDLE                   -----    -----      0028H    0001H      -----    -----
  +--> ?PR?_MENUPROCESSKEY?OSD_MENU
  +--> ?PR?TURNOFFBACKLIGHT?ARKCHIP
  +--> ?PR?HIDEMENU?OSD_MENU

?PR?POS_GETUSERDEFINEDMSG?GETSYSMSG              0022H.3  0000H.1    -----    -----      -----    -----
  +--> ?PR?_SELVIDEODEVICE?ARKCHIP
  +--> ?PR?OSDHIDE?ARKCHIP
  +--> ?PR?EXITLOWPOWERMODE?ARKCHIP
  +--> ?PR?_DELAYMS?DELAY
  +--> ?PR?TURNONBACKLIGHT?ARKCHIP
  +--> ?PR?TURNOFFBACKLIGHT?ARKCHIP
  +--> ?PR?ENTERLOWPOWERMODE?ARKCHIP

?PR?_USERDEFINEDMSGHANDLE?EVENTHANDLE            -----    -----      0028H    0001H      -----    -----
  +--> ?PR?_EXECTCOMD?OSD_MENU
  +--> ?PR?_MENUPROCESSKEY?OSD_MENU
  +--> ?CO?OSD_MENU
  +--> ?PR?TURNONBACKLIGHT?ARKCHIP

?PR?POS_GETMISCMSG?GETSYSMSG                     0022H.3  0000H.1    -----    -----      -----    -----

?PR?_MISCMSGHANDLE?EVENTHANDLE                   -----    -----      0028H    0001H      -----    -----
  +--> ?PR?_EXECTCOMD?OSD_MENU

?C_INITSEG                                       -----    -----      -----    -----      -----    -----
  +--> ?CO?ARKCHIP



BL51 BANKED LINKER/LOCATER V6.22                                                      06/07/2020  11:08:23  PAGE 24


SYMBOL TABLE OF MODULE:  ..\Hex\AMT_CAR_HEX (CONFIGLCDPARA)

  VALUE           TYPE          NAME
  ----------------------------------

  -------         MODULE        CONFIGLCDPARA
  C:0000H         SYMBOL        _ICE_DUMMY_
  D:0080H         PUBLIC        P0
  D:0090H         PUBLIC        P1
  D:00A0H         PUBLIC        P2
  D:00B0H         PUBLIC        P3
  C:75FEH         PUBLIC        _DataCurve
  B:00A8H.7       PUBLIC        EA
  C:7F2CH         PUBLIC        UpdataPicPara
  C:5436H         PUBLIC        AMT_PadMuxStaticPara
  D:00A8H         PUBLIC        IE
  D:00B8H         PUBLIC        IP
  C:97F8H         PUBLIC        _GetSourceID
  C:91C5H         PUBLIC        _TintCurve
  C:5394H         PUBLIC        AV1_posDynPara
  D:0098H         PUBLIC        SCON
  C:9167H         PUBLIC        ConfigPadMuxPara
  D:0088H         PUBLIC        TCON
  C:518AH         PUBLIC        AV1_staticPara
  C:5404H         PUBLIC        AV1_sysDynPara
  C:5481H         PUBLIC        VideoChannelPara
  X:0092H         PUBLIC        g_ucTint
  C:826BH         PUBLIC        _ConfigDispZoomDynPara
  C:8550H         PUBLIC        _ConfigStaticPara
  C:6918H         PUBLIC        _ConfigColorSysDynPara
  X:0093H         PUBLIC        g_ucSaturation
  D:00E8H         PUBLIC        EIE
  D:00F8H         PUBLIC        EIP
  X:0094H         PUBLIC        g_ucbrightness
  D:00C0H         PUBLIC        SCON1
  C:A5F8H         PUBLIC        ConfigUserParaSetting
  D:00C8H         PUBLIC        T2CON
  D:00D8H         PUBLIC        EICON
  X:0095H         PUBLIC        g_ucContrast
  D:00D0H         PUBLIC        PSW
  C:A5F9H         PUBLIC        ConfigPannelSfrDisp
  -------         PROC          L?0050
  -------         ENDPROC       L?0050
  -------         PROC          _DATACURVE
  D:0002H         SYMBOL        minDat
  D:0032H         SYMBOL        ideaDat
  D:0003H         SYMBOL        maxDat
  D:0034H         SYMBOL        currentDat
  D:0035H         SYMBOL        len
  -------         DO            
  X:0065H         SYMBOL        regVal
  -------         ENDDO         
  C:75FEH         LINE#         45
  C:7602H         LINE#         46
  C:7602H         LINE#         49
  C:760CH         LINE#         50
  C:760CH         LINE#         51
BL51 BANKED LINKER/LOCATER V6.22                                                      06/07/2020  11:08:23  PAGE 25


  C:761FH         LINE#         52
  C:761FH         LINE#         53
  C:7641H         LINE#         54
  C:7643H         LINE#         55
  C:7643H         LINE#         56
  C:7665H         LINE#         57
  C:7665H         LINE#         58
  C:7670H         LINE#         59
  C:7672H         LINE#         60
  C:7672H         LINE#         62
  C:7672H         LINE#         63
  C:76AEH         LINE#         64
  C:76AFH         LINE#         65
  C:76AFH         LINE#         66
  C:76AFH         LINE#         67
  C:76B1H         LINE#         68
  -------         ENDPROC       _DATACURVE
  -------         PROC          _TINTCURVE
  D:0007H         SYMBOL        currentDat
  D:0005H         SYMBOL        len
  -------         DO            
  X:0065H         SYMBOL        regVal
  -------         ENDDO         
  C:91C5H         LINE#         82
  C:91C5H         LINE#         83
  C:91C5H         LINE#         85
  C:91CCH         LINE#         86
  C:91CCH         LINE#         87
  C:91CDH         LINE#         88
  C:91CFH         LINE#         89
  C:91DAH         LINE#         90
  C:91DAH         LINE#         91
  C:91F1H         LINE#         92
  C:91F3H         LINE#         93
  C:9201H         LINE#         94
  C:9201H         LINE#         95
  C:9219H         LINE#         96
  C:9219H         LINE#         97
  C:921EH         LINE#         98
  -------         ENDPROC       _TINTCURVE
  C:97F3H         SYMBOL        L?0052
  -------         PROC          L?0051
  -------         ENDPROC       L?0051
  C:97F3H         SYMBOL        L?0052
  -------         PROC          _GETSOURCEID
  D:0007H         SYMBOL        CurretSource
  -------         DO            
  X:0065H         SYMBOL        i
  -------         ENDDO         
  C:97F8H         LINE#         114
  C:97F8H         LINE#         115
  C:97F8H         LINE#         118
  C:9807H         LINE#         119
  C:9807H         LINE#         120
  C:981AH         LINE#         121
  C:981AH         LINE#         122
  C:9820H         LINE#         123
BL51 BANKED LINKER/LOCATER V6.22                                                      06/07/2020  11:08:23  PAGE 26


  C:9820H         LINE#         124
  C:9828H         LINE#         125
  C:982AH         LINE#         126
  -------         ENDPROC       _GETSOURCEID
  -------         PROC          _CONFIGSTATICPARA
  D:0007H         SYMBOL        CurretSource
  -------         DO            
  X:0058H         SYMBOL        i
  X:005AH         SYMBOL        ucSourceIndex
  -------         ENDDO         
  C:8550H         LINE#         142
  C:8550H         LINE#         143
  C:8550H         LINE#         147
  C:8558H         LINE#         149
  C:856FH         LINE#         150
  C:856FH         LINE#         151
  C:85CFH         LINE#         152
  C:85DFH         LINE#         157
  -------         ENDPROC       _CONFIGSTATICPARA
  -------         PROC          CONFIGPADMUXPARA
  -------         DO            
  X:0058H         SYMBOL        i
  -------         ENDDO         
  C:9167H         LINE#         173
  C:9167H         LINE#         174
  C:9167H         LINE#         176
  C:916EH         LINE#         177
  C:916EH         LINE#         178
  C:91AAH         LINE#         179
  C:91C4H         LINE#         180
  -------         ENDPROC       CONFIGPADMUXPARA
  -------         PROC          CONFIGUSERPARASETTING
  C:A5F8H         LINE#         195
  C:A5F8H         LINE#         196
  C:A5F8H         LINE#         197
  C:A5F8H         LINE#         198
  -------         ENDPROC       CONFIGUSERPARASETTING
  -------         PROC          _CONFIGCOLORSYSDYNPARA
  D:0030H         SYMBOL        currentSys
  -------         DO            
  X:0063H         SYMBOL        i
  X:0064H         SYMBOL        ucSourceIndex
  -------         ENDDO         
  C:6918H         LINE#         213
  C:691AH         LINE#         214
  C:691AH         LINE#         218
  C:6922H         LINE#         220
  C:6931H         LINE#         221
  C:6931H         LINE#         222
  C:699FH         LINE#         223
  C:69A7H         LINE#         225
  C:69AFH         LINE#         226
  C:69B7H         LINE#         227
  C:69BFH         LINE#         228
  C:69C7H         LINE#         230
  C:69D6H         LINE#         231
  C:69EEH         LINE#         232
BL51 BANKED LINKER/LOCATER V6.22                                                      06/07/2020  11:08:23  PAGE 27


  C:6A08H         LINE#         233
  -------         ENDPROC       _CONFIGCOLORSYSDYNPARA
  -------         PROC          _CONFIGDISPZOOMDYNPARA
  D:0030H         SYMBOL        currentmode
  -------         DO            
  X:0063H         SYMBOL        i
  -------         ENDDO         
  C:826BH         LINE#         251
  C:826DH         LINE#         252
  C:826DH         LINE#         255
  C:826FH         LINE#         256
  C:8276H         LINE#         257
  C:827BH         LINE#         258
  C:827BH         LINE#         259
  C:82EEH         LINE#         260
  C:82FAH         LINE#         261
  C:82FFH         LINE#         262
  C:8301H         LINE#         263
  -------         ENDPROC       _CONFIGDISPZOOMDYNPARA
  -------         PROC          CONFIGPANNELSFRDISP
  C:A5F9H         LINE#         279
  C:A5F9H         LINE#         280
  C:A5F9H         LINE#         310
  -------         ENDPROC       CONFIGPANNELSFRDISP
  -------         PROC          UPDATAPICPARA
  C:7F2CH         LINE#         326
  C:7F2CH         LINE#         327
  C:7F2CH         LINE#         328
  C:7F3BH         LINE#         329
  C:7F55H         LINE#         330
  C:7F6FH         LINE#         331
  C:7F7EH         LINE#         333
  C:7F91H         LINE#         334
  C:7F91H         LINE#         335
  C:7F91H         LINE#         336
  C:7FA3H         LINE#         337
  C:7FA3H         LINE#         339
  C:7FA3H         LINE#         340
  C:7FB5H         LINE#         341
  C:7FB5H         LINE#         343
  C:7FB5H         LINE#         344
  C:7FC7H         LINE#         345
  C:7FC7H         LINE#         347
  C:7FC7H         LINE#         348
  C:7FD9H         LINE#         349
  C:7FD9H         LINE#         351
  C:7FD9H         LINE#         352
  C:7FD9H         LINE#         353
  C:7FD9H         LINE#         354
  -------         ENDPROC       UPDATAPICPARA
  -------         ENDMOD        CONFIGLCDPARA

  -------         MODULE        UART_ADJSPIREG
  C:0000H         SYMBOL        _ICE_DUMMY_
  D:0080H         PUBLIC        P0
  D:0090H         PUBLIC        P1
  D:00A0H         PUBLIC        P2
BL51 BANKED LINKER/LOCATER V6.22                                                      06/07/2020  11:08:23  PAGE 28


  D:00B0H         PUBLIC        P3
  D:00A8H         PUBLIC        IE
  D:00B8H         PUBLIC        IP
  D:0098H         PUBLIC        SCON
  D:0088H         PUBLIC        TCON
  D:00E8H         PUBLIC        EIE
  D:00F8H         PUBLIC        EIP
  D:00C0H         PUBLIC        SCON1
  D:00C8H         PUBLIC        T2CON
  D:00D8H         PUBLIC        EICON
  D:00D0H         PUBLIC        PSW
  -------         ENDMOD        UART_ADJSPIREG

  -------         MODULE        ARKCHIP
  C:0000H         SYMBOL        _ICE_DUMMY_
  D:0080H         PUBLIC        P0
  C:8B2CH         PUBLIC        _OsdBlockClear
  D:0090H         PUBLIC        P1
  D:00A0H         PUBLIC        P2
  D:00B0H         PUBLIC        P3
  B:00A8H.7       PUBLIC        EA
  C:89B8H         PUBLIC        _OsdConfigBlockIndexStarAddr
  C:7129H         PUBLIC        _OsdConfigWndPosition
  C:41C5H         SYMBOL        ASCIIMap
  D:00A8H         PUBLIC        IE
  C:43C5H         SYMBOL        AsianMap
  X:0077H         SYMBOL        g_ucCurOsdBlockId
  C:8D06H         PUBLIC        _DMALoadFontRam
  C:9779H         PUBLIC        OsdClear
  C:A370H         PUBLIC        _OsdBlockHide
  D:00B2H         PUBLIC        T3_CNTH
  C:0799H         PUBLIC        POS_SysTimeDriver
  C:A319H         PUBLIC        _Abs
  D:00B8H         PUBLIC        IP
  D:00B1H         PUBLIC        T3_CNTL
  C:93C7H         PUBLIC        _OsdConfigDispMode
  C:945EH         PUBLIC        InitAdc
  C:A52FH         PUBLIC        OsdHide
  C:5DADH         PUBLIC        _OsdDrawGuage
  C:904AH         PUBLIC        _SetVDETestSwitch
  X:0078H         PUBLIC        g_OsdContrller
  C:A471H         PUBLIC        _OsdConfigColorChangeRGB
  C:A5FDH         PUBLIC        _TurnOffDevicePower
  C:0886H         PUBLIC        _POS_EnableChipAdc
  C:9A1AH         PUBLIC        _OsdConfigColorChangWndSize
  D:0098H         PUBLIC        SCON
  C:71FDH         PUBLIC        GetProCompielTime
  D:0088H         PUBLIC        TCON
  C:0CFEH         PUBLIC        POS_SelectKeyDevice
  C:8E55H         PUBLIC        _OsdConfigBitmapPalette
  C:005EH         PUBLIC        TurnOffBackLight
  C:A384H         PUBLIC        _OsdBlockShow
  C:76B2H         PUBLIC        _OsdWndClear
  D:00EDH         PUBLIC        P0_IEN
  D:00EEH         PUBLIC        P1_IEN
  C:41B0H         SYMBOL        _?ix1000
  D:00E9H         PUBLIC        P0_OEN
BL51 BANKED LINKER/LOCATER V6.22                                                      06/07/2020  11:08:23  PAGE 29


  C:41BCH         SYMBOL        _?ix1001
  C:65F0H         PUBLIC        _LoadBitMapToFontRam
  C:5EF2H         PUBLIC        _OsdDrawIcon
  D:00EAH         PUBLIC        P1_OEN
  C:47CFH         SYMBOL        _?ix1002
  C:47E4H         SYMBOL        _?ix1003
  C:967FH         PUBLIC        _OsdConfigWndSize
  C:A5FAH         PUBLIC        EnterLowPowerMode
  C:A5FCH         PUBLIC        _TurnOnDevicePower
  C:A51DH         PUBLIC        _OsdIconSize
  C:7BB8H         PUBLIC        _SetPWM0
  D:00E8H         PUBLIC        EIE
  C:6A0BH         PUBLIC        _LoadMulCharToFontram
  C:7C69H         PUBLIC        _SetPWM1
  C:6DB8H         PUBLIC        OsdGetStartIndexAddr
  C:7D1AH         PUBLIC        _SetPWM2
  C:8BA4H         PUBLIC        OsdGetBlockSize
  C:7DCBH         PUBLIC        _SetPWM3
  D:00C6H         PUBLIC        MCU_CFG_REG
  C:7470H         PUBLIC        _OsdWriteCharToFontram
  C:A3BDH         PUBLIC        TurnOnBackLight
  C:45C5H         SYMBOL        FontRamMap
  D:00F8H         PUBLIC        EIP
  C:7A4EH         PUBLIC        _OsdDrawHex
  C:782BH         PUBLIC        _OsdConfigScaler
  C:A5DAH         PUBLIC        _OsdBlockEnable
  D:00C0H         PUBLIC        SCON1
  C:A3EFH         PUBLIC        _OsdConfigBright
  C:94EDH         PUBLIC        OsdCofigPalette
  D:00C8H         PUBLIC        T2CON
  C:A5FBH         PUBLIC        ExitLowPowerMode
  C:59AEH         PUBLIC        _OsdDrawNum
  C:982BH         PUBLIC        InitCarReversing
  C:9B2DH         PUBLIC        _OsdConfigAlpha
  C:A4E8H         PUBLIC        _OsdColorChangeSwitch
  D:00D8H         PUBLIC        EICON
  C:9BB4H         PUBLIC        _OsdConfigColorChangWndPosition
  C:9B00H         PUBLIC        InitGlobalPara
  C:64CEH         PUBLIC        _OsdDrawStr
  C:8C91H         PUBLIC        _OsdConfigBlockColor
  C:8F86H         PUBLIC        _SelVideoDevice
  C:9538H         PUBLIC        OsdGetWndWidth
  C:000EH         PUBLIC        _ConfigCrtlMode
  D:00D0H         PUBLIC        PSW
  C:A4DDH         PUBLIC        _OsdConfigBitmapStarIndex
  -------         PROC          _ABS
  D:0006H         SYMBOL        tmpVal1
  D:0004H         SYMBOL        tmpVal2
  C:A319H         LINE#         183
  C:A319H         LINE#         184
  C:A319H         LINE#         185
  C:A320H         LINE#         186
  C:A320H         LINE#         187
  C:A327H         LINE#         188
  C:A327H         LINE#         190
  C:A327H         LINE#         191
  C:A32EH         LINE#         192
BL51 BANKED LINKER/LOCATER V6.22                                                      06/07/2020  11:08:23  PAGE 30


  C:A32EH         LINE#         193
  -------         ENDPROC       _ABS
  -------         PROC          POS_SELECTKEYDEVICE
  -------         DO            
  X:00A1H         SYMBOL        CheckAckCnt
  X:00A2H         SYMBOL        ucLoop
  -------         ENDDO         
  C:0CFEH         LINE#         206
  C:0CFEH         LINE#         207
  C:0CFEH         LINE#         211
  C:0D03H         LINE#         213
  C:0D07H         LINE#         215
  C:0D0EH         LINE#         216
  C:0D18H         LINE#         217
  C:0D18H         LINE#         218
  C:0D1BH         LINE#         219
  C:0D22H         LINE#         220
  C:0D27H         LINE#         221
  C:0D2EH         LINE#         222
  C:0D33H         LINE#         223
  C:0D33H         LINE#         224
  C:0D39H         LINE#         225
  C:0D39H         LINE#         226
  C:0D40H         LINE#         227
  C:0D42H         LINE#         228
  C:0D45H         LINE#         229
  C:0D4EH         LINE#         230
  C:0D4EH         LINE#         232
  C:0D54H         LINE#         233
  C:0D5AH         LINE#         234
  C:0D5DH         LINE#         235
  C:0D5DH         LINE#         237
  C:0D5DH         LINE#         238
  C:0D62H         LINE#         243
  C:0D65H         LINE#         244
  C:0D68H         LINE#         245
  C:0D68H         LINE#         246
  -------         ENDPROC       POS_SELECTKEYDEVICE
  -------         PROC          _SETPWM0
  D:0004H         SYMBOL        Freq
  D:0035H         SYMBOL        Duty
  -------         DO            
  X:0065H         SYMBOL        tmpfreq
  X:0069H         SYMBOL        tmpduty
  X:006DH         SYMBOL        tmppercent
  -------         ENDDO         
  C:7BB8H         LINE#         293
  C:7BB8H         LINE#         294
  C:7BB8H         LINE#         299
  C:7BD4H         LINE#         300
  C:7BDEH         LINE#         301
  C:7BFDH         LINE#         303
  C:7C04H         LINE#         304
  C:7C08H         LINE#         305
  C:7C0FH         LINE#         306
  C:7C13H         LINE#         308
  C:7C1AH         LINE#         309
BL51 BANKED LINKER/LOCATER V6.22                                                      06/07/2020  11:08:23  PAGE 31


  C:7C1EH         LINE#         310
  C:7C2BH         LINE#         311
  C:7C43H         LINE#         312
  C:7C50H         LINE#         313
  C:7C68H         LINE#         314
  -------         ENDPROC       _SETPWM0
  -------         PROC          _SETPWM1
  D:0004H         SYMBOL        Freq
  D:0035H         SYMBOL        Duty
  -------         DO            
  X:0065H         SYMBOL        tmpfreq
  X:0069H         SYMBOL        tmpduty
  X:006DH         SYMBOL        tmppercent
  -------         ENDDO         
  C:7C69H         LINE#         326
  C:7C69H         LINE#         327
  C:7C69H         LINE#         332
  C:7C85H         LINE#         333
  C:7C8FH         LINE#         334
  C:7CAEH         LINE#         336
  C:7CB5H         LINE#         337
  C:7CB9H         LINE#         338
  C:7CC0H         LINE#         339
  C:7CC4H         LINE#         341
  C:7CCBH         LINE#         342
  C:7CCFH         LINE#         343
  C:7CDCH         LINE#         344
  C:7CF4H         LINE#         345
  C:7D01H         LINE#         346
  C:7D19H         LINE#         347
  -------         ENDPROC       _SETPWM1
  -------         PROC          _SETPWM2
  D:0004H         SYMBOL        Freq
  D:0035H         SYMBOL        Duty
  -------         DO            
  X:0065H         SYMBOL        tmpfreq
  X:0069H         SYMBOL        tmpduty
  X:006DH         SYMBOL        tmppercent
  -------         ENDDO         
  C:7D1AH         LINE#         359
  C:7D1AH         LINE#         360
  C:7D1AH         LINE#         365
  C:7D36H         LINE#         366
  C:7D40H         LINE#         367
  C:7D5FH         LINE#         369
  C:7D66H         LINE#         370
  C:7D6AH         LINE#         371
  C:7D71H         LINE#         372
  C:7D75H         LINE#         374
  C:7D7CH         LINE#         375
  C:7D80H         LINE#         376
  C:7D8DH         LINE#         377
  C:7DA5H         LINE#         378
  C:7DB2H         LINE#         379
  C:7DCAH         LINE#         380
  -------         ENDPROC       _SETPWM2
  -------         PROC          _SETPWM3
BL51 BANKED LINKER/LOCATER V6.22                                                      06/07/2020  11:08:23  PAGE 32


  D:0004H         SYMBOL        Freq
  D:0035H         SYMBOL        Duty
  -------         DO            
  X:0065H         SYMBOL        tmpfreq
  X:0069H         SYMBOL        tmpduty
  X:006DH         SYMBOL        tmppercent
  -------         ENDDO         
  C:7DCBH         LINE#         393
  C:7DCBH         LINE#         394
  C:7DCBH         LINE#         399
  C:7DE7H         LINE#         400
  C:7DF1H         LINE#         401
  C:7E10H         LINE#         403
  C:7E17H         LINE#         404
  C:7E1BH         LINE#         405
  C:7E22H         LINE#         406
  C:7E26H         LINE#         408
  C:7E2DH         LINE#         409
  C:7E31H         LINE#         410
  C:7E3EH         LINE#         411
  C:7E56H         LINE#         412
  C:7E63H         LINE#         413
  C:7E7BH         LINE#         414
  -------         ENDPROC       _SETPWM3
  -------         PROC          GETPROCOMPIELTIME
  -------         DO            
  D:0008H         SYMBOL        MonthsBuf
  X:0058H         SYMBOL        tmpDate
  X:0064H         SYMBOL        tmpTime
  X:006DH         SYMBOL        tmpYear
  X:006EH         SYMBOL        tmpMonth
  X:006FH         SYMBOL        tmpDay
  X:0070H         SYMBOL        tmpHour
  X:0071H         SYMBOL        tmpMinute
  X:0072H         SYMBOL        i
  -------         ENDDO         
  C:71FDH         LINE#         428
  C:71FDH         LINE#         429
  C:71FDH         LINE#         431
  C:7210H         LINE#         432
  C:7223H         LINE#         437
  C:7231H         LINE#         438
  C:7236H         LINE#         439
  C:7244H         LINE#         440
  C:7249H         LINE#         442
  C:7257H         LINE#         443
  C:7257H         LINE#         444
  C:7272H         LINE#         445
  C:7272H         LINE#         446
  C:727BH         LINE#         447
  C:727DH         LINE#         448
  C:727DH         LINE#         449
  C:7285H         LINE#         450
  C:7293H         LINE#         451
  C:72A1H         LINE#         453
  C:72A7H         LINE#         454
  C:72AFH         LINE#         455
BL51 BANKED LINKER/LOCATER V6.22                                                      06/07/2020  11:08:23  PAGE 33


  C:72B7H         LINE#         456
  C:72BFH         LINE#         457
  C:72C7H         LINE#         458
  C:72CFH         LINE#         459
  -------         ENDPROC       GETPROCOMPIELTIME
  -------         PROC          POS_SYSTIMEDRIVER
  -------         DO            
  X:0073H         SYMBOL        currenTime3Cont
  X:0075H         SYMBOL        preTime3Cont
  X:00A3H         SYMBOL        tempValBuf
  -------         ENDDO         
  C:0799H         LINE#         470
  C:0799H         LINE#         471
  C:0799H         LINE#         477
  C:07A3H         LINE#         478
  C:07AEH         LINE#         479
  C:07BAH         LINE#         481
  C:07CEH         LINE#         482
  C:07CEH         LINE#         483
  C:07DBH         LINE#         484
  C:07E6H         LINE#         485
  C:07E6H         LINE#         486
  C:07F1H         LINE#         487
  C:0807H         LINE#         488
  C:080DH         LINE#         490
  C:0818H         LINE#         491
  C:0818H         LINE#         492
  C:081AH         LINE#         493
  C:081AH         LINE#         494
  C:081AH         LINE#         495
  C:081AH         LINE#         497
  C:081AH         LINE#         498
  C:0831H         LINE#         499
  C:0845H         LINE#         500
  C:0852H         LINE#         501
  C:0852H         LINE#         502
  C:085EH         LINE#         503
  C:0871H         LINE#         504
  C:0877H         LINE#         506
  C:0882H         LINE#         507
  C:0882H         LINE#         508
  C:0884H         LINE#         509
  C:0884H         LINE#         510
  C:0884H         LINE#         511
  C:0884H         LINE#         512
  C:0885H         LINE#         513
  -------         ENDPROC       POS_SYSTIMEDRIVER
  -------         PROC          _POS_ENABLECHIPADC
  D:0007H         SYMBOL        Channel
  -------         DO            
  X:0060H         SYMBOL        CurrentADC
  -------         ENDDO         
  C:0886H         LINE#         619
  C:0886H         LINE#         620
  C:0886H         LINE#         621
  C:088EH         LINE#         623
  C:089CH         LINE#         624
BL51 BANKED LINKER/LOCATER V6.22                                                      06/07/2020  11:08:23  PAGE 34


  C:089CH         LINE#         625
  C:089CH         LINE#         627
  C:089FH         LINE#         628
  C:08A2H         LINE#         630
  C:08ABH         LINE#         631
  C:08B2H         LINE#         632
  C:08B9H         LINE#         633
  C:08C6H         LINE#         634
  C:08D1H         LINE#         635
  C:08D4H         LINE#         636
  C:08D4H         LINE#         637
  C:08D6H         LINE#         639
  C:08D6H         LINE#         641
  C:08D9H         LINE#         642
  C:08DCH         LINE#         644
  C:08E5H         LINE#         645
  C:08ECH         LINE#         646
  C:08F3H         LINE#         647
  C:0900H         LINE#         648
  C:090BH         LINE#         649
  C:090EH         LINE#         650
  C:090EH         LINE#         651
  C:0910H         LINE#         653
  C:0910H         LINE#         655
  C:0913H         LINE#         656
  C:0916H         LINE#         658
  C:091FH         LINE#         659
  C:0926H         LINE#         660
  C:092DH         LINE#         661
  C:093AH         LINE#         662
  C:0945H         LINE#         663
  C:0954H         LINE#         664
  C:0954H         LINE#         665
  C:0956H         LINE#         679
  C:0956H         LINE#         680
  C:095DH         LINE#         681
  C:095DH         LINE#         682
  C:095DH         LINE#         688
  C:0965H         LINE#         689
  -------         ENDPROC       _POS_ENABLECHIPADC
  -------         PROC          _CONFIGCRTLMODE
  D:0007H         SYMBOL        CtrlMode
  C:000EH         LINE#         702
  C:000EH         LINE#         703
  C:000EH         LINE#         704
  C:0011H         LINE#         705
  C:0011H         LINE#         706
  C:0014H         LINE#         707
  C:0014H         LINE#         709
  C:0017H         LINE#         710
  C:0017H         LINE#         711
  C:001AH         LINE#         712
  C:001AH         LINE#         713
  -------         ENDPROC       _CONFIGCRTLMODE
  -------         PROC          TURNOFFBACKLIGHT
  C:005EH         LINE#         725
  C:005EH         LINE#         726
BL51 BANKED LINKER/LOCATER V6.22                                                      06/07/2020  11:08:23  PAGE 35


  C:005EH         LINE#         728
  C:0061H         LINE#         729
  C:0061H         LINE#         730
  C:0063H         LINE#         733
  C:0068H         LINE#         736
  C:006FH         LINE#         742
  C:006FH         LINE#         743
  -------         ENDPROC       TURNOFFBACKLIGHT
  -------         PROC          TURNONBACKLIGHT
  C:A3BDH         LINE#         758
  C:A3BDH         LINE#         759
  C:A3BDH         LINE#         762
  C:A3C0H         LINE#         763
  C:A3C0H         LINE#         764
  C:A3C2H         LINE#         770
  C:A3C9H         LINE#         773
  C:A3CEH         LINE#         775
  C:A3CEH         LINE#         776
  -------         ENDPROC       TURNONBACKLIGHT
  -------         PROC          ENTERLOWPOWERMODE
  C:A5FAH         LINE#         791
  C:A5FAH         LINE#         792
  C:A5FAH         LINE#         801
  -------         ENDPROC       ENTERLOWPOWERMODE
  -------         PROC          EXITLOWPOWERMODE
  C:A5FBH         LINE#         814
  C:A5FBH         LINE#         815
  C:A5FBH         LINE#         825
  -------         ENDPROC       EXITLOWPOWERMODE
  -------         PROC          _SETVDETESTSWITCH
  D:0007H         SYMBOL        ScreeSw
  C:904AH         LINE#         976
  C:904AH         LINE#         977
  C:904AH         LINE#         978
  C:906CH         LINE#         979
  C:906CH         LINE#         980
  C:906CH         LINE#         981
  C:9072H         LINE#         982
  C:9074H         LINE#         984
  C:9074H         LINE#         985
  C:907AH         LINE#         986
  C:907CH         LINE#         988
  C:907CH         LINE#         989
  C:9082H         LINE#         990
  C:9084H         LINE#         992
  C:9084H         LINE#         993
  C:908AH         LINE#         994
  C:908CH         LINE#         996
  C:908CH         LINE#         997
  C:9092H         LINE#         998
  C:9094H         LINE#         1000
  C:9094H         LINE#         1001
  C:909AH         LINE#         1002
  C:909CH         LINE#         1004
  C:909CH         LINE#         1005
  C:90A2H         LINE#         1006
  C:90A2H         LINE#         1008
BL51 BANKED LINKER/LOCATER V6.22                                                      06/07/2020  11:08:23  PAGE 36


  C:90A2H         LINE#         1009
  C:90A2H         LINE#         1010
  C:90A2H         LINE#         1011
  -------         ENDPROC       _SETVDETESTSWITCH
  -------         PROC          _TURNONDEVICEPOWER
  D:0007H         SYMBOL        curSource
  C:A5FCH         LINE#         1044
  C:A5FCH         LINE#         1045
  C:A5FCH         LINE#         1046
  C:A5FCH         LINE#         1047
  C:A5FCH         LINE#         1048
  C:A5FCH         LINE#         1049
  C:A5FCH         LINE#         1051
  C:A5FCH         LINE#         1052
  C:A5FCH         LINE#         1054
  C:A5FCH         LINE#         1055
  C:A5FCH         LINE#         1057
  C:A5FCH         LINE#         1058
  C:A5FCH         LINE#         1059
  C:A5FCH         LINE#         1060
  -------         ENDPROC       _TURNONDEVICEPOWER
  -------         PROC          _SELVIDEODEVICE
  D:0007H         SYMBOL        curSource
  C:8F86H         LINE#         1073
  C:8F86H         LINE#         1074
  C:8F86H         LINE#         1075
  C:8F91H         LINE#         1076
  C:8F91H         LINE#         1077
  C:8F91H         LINE#         1078
  C:8FA4H         LINE#         1079
  C:8FAFH         LINE#         1080
  C:8FB0H         LINE#         1082
  C:8FB0H         LINE#         1087
  C:8FB0H         LINE#         1088
  C:8FC3H         LINE#         1089
  C:8FC9H         LINE#         1090
  C:8FCBH         LINE#         1092
  C:8FCBH         LINE#         1093
  C:8FCBH         LINE#         1094
  C:8FDEH         LINE#         1095
  C:8FE9H         LINE#         1096
  C:8FE9H         LINE#         1097
  C:8FE9H         LINE#         1098
  -------         ENDPROC       _SELVIDEODEVICE
  -------         PROC          _TURNOFFDEVICEPOWER
  D:0007H         SYMBOL        curSource
  C:A5FDH         LINE#         1109
  C:A5FDH         LINE#         1110
  C:A5FDH         LINE#         1111
  C:A5FDH         LINE#         1112
  C:A5FDH         LINE#         1113
  C:A5FDH         LINE#         1114
  C:A5FDH         LINE#         1116
  C:A5FDH         LINE#         1117
  C:A5FDH         LINE#         1119
  C:A5FDH         LINE#         1120
  C:A5FDH         LINE#         1122
BL51 BANKED LINKER/LOCATER V6.22                                                      06/07/2020  11:08:23  PAGE 37


  C:A5FDH         LINE#         1123
  C:A5FDH         LINE#         1124
  C:A5FDH         LINE#         1125
  -------         ENDPROC       _TURNOFFDEVICEPOWER
  -------         PROC          INITADC
  C:945EH         LINE#         1256
  C:945EH         LINE#         1257
  C:945EH         LINE#         1259
  C:9464H         LINE#         1262
  C:946AH         LINE#         1263
  C:9470H         LINE#         1264
  C:9475H         LINE#         1267
  C:947BH         LINE#         1268
  C:947FH         LINE#         1271
  C:9485H         LINE#         1272
  C:9489H         LINE#         1273
  C:948CH         LINE#         1276
  C:9492H         LINE#         1277
  C:9496H         LINE#         1280
  C:949BH         LINE#         1281
  C:949DH         LINE#         1284
  C:94A3H         LINE#         1285
  C:94A5H         LINE#         1286
  -------         ENDPROC       INITADC
  -------         PROC          INITCARREVERSING
  C:982BH         LINE#         1302
  C:982BH         LINE#         1303
  C:982BH         LINE#         1304
  C:9832H         LINE#         1305
  C:9836H         LINE#         1306
  C:983BH         LINE#         1307
  C:983FH         LINE#         1308
  C:9844H         LINE#         1309
  C:9848H         LINE#         1310
  C:984FH         LINE#         1311
  C:9856H         LINE#         1312
  C:985CH         LINE#         1313
  C:9860H         LINE#         1314
  -------         ENDPROC       INITCARREVERSING
  -------         PROC          INITGLOBALPARA
  C:9B00H         LINE#         1328
  C:9B00H         LINE#         1329
  C:9B00H         LINE#         1332
  C:9B03H         LINE#         1333
  C:9B06H         LINE#         1334
  C:9B0EH         LINE#         1335
  C:9B13H         LINE#         1336
  C:9B18H         LINE#         1337
  C:9B1DH         LINE#         1338
  C:9B20H         LINE#         1339
  C:9B26H         LINE#         1340
  -------         ENDPROC       INITGLOBALPARA
  -------         PROC          OSDCOFIGPALETTE
  C:94EDH         LINE#         236
  C:94EDH         LINE#         237
  C:94EDH         LINE#         238
  C:94F3H         LINE#         239
BL51 BANKED LINKER/LOCATER V6.22                                                      06/07/2020  11:08:23  PAGE 38


  C:94F8H         LINE#         240
  C:94FEH         LINE#         241
  C:9503H         LINE#         242
  C:9509H         LINE#         243
  C:950FH         LINE#         244
  C:9515H         LINE#         245
  C:951AH         LINE#         246
  C:9520H         LINE#         247
  C:9526H         LINE#         248
  C:952CH         LINE#         249
  C:9532H         LINE#         250
  -------         ENDPROC       OSDCOFIGPALETTE
  -------         PROC          _OSDCONFIGBITMAPPALETTE
  D:004EH         SYMBOL        paletColor
  -------         DO            
  X:00ABH         SYMBOL        i
  -------         ENDDO         
  C:8E55H         LINE#         251
  C:8E5BH         LINE#         252
  C:8E5BH         LINE#         253
  C:8E60H         LINE#         255
  C:8E61H         LINE#         256
  C:8E61H         LINE#         257
  C:8E8EH         LINE#         258
  C:8EB1H         LINE#         259
  C:8EBBH         LINE#         260
  -------         ENDPROC       _OSDCONFIGBITMAPPALETTE
  -------         PROC          _OSDCONFIGBLOCKINDEXSTARADDR
  D:0003H         SYMBOL        blockId
  D:0004H         SYMBOL        starAddr
  C:89B8H         LINE#         264
  C:89BAH         LINE#         265
  C:89BAH         LINE#         266
  C:89BFH         LINE#         267
  C:89BFH         LINE#         268
  C:89C4H         LINE#         269
  C:89CBH         LINE#         270
  C:89D8H         LINE#         271
  C:89D8H         LINE#         272
  C:89DDH         LINE#         273
  C:89DDH         LINE#         274
  C:89E2H         LINE#         275
  C:89E9H         LINE#         276
  C:89F6H         LINE#         277
  C:89F6H         LINE#         278
  C:89FBH         LINE#         279
  C:89FBH         LINE#         280
  C:8A00H         LINE#         281
  C:8A07H         LINE#         282
  C:8A14H         LINE#         283
  C:8A14H         LINE#         284
  C:8A19H         LINE#         285
  C:8A19H         LINE#         286
  C:8A1EH         LINE#         287
  C:8A25H         LINE#         288
  C:8A32H         LINE#         289
  C:8A32H         LINE#         290
BL51 BANKED LINKER/LOCATER V6.22                                                      06/07/2020  11:08:23  PAGE 39


  C:8A36H         LINE#         291
  -------         ENDPROC       _OSDCONFIGBLOCKINDEXSTARADDR
  -------         PROC          OSDGETSTARTINDEXADDR
  -------         DO            
  X:006BH         SYMBOL        starAddr
  -------         ENDDO         
  C:6DB8H         LINE#         294
  C:6DB8H         LINE#         295
  C:6DB8H         LINE#         296
  C:6DBFH         LINE#         298
  C:6DC8H         LINE#         299
  C:6DC8H         LINE#         300
  C:6DDDH         LINE#         301
  C:6DE8H         LINE#         302
  C:6DF7H         LINE#         303
  C:6DF7H         LINE#         304
  C:6DFCH         LINE#         305
  C:6DFCH         LINE#         306
  C:6E11H         LINE#         307
  C:6E1CH         LINE#         308
  C:6E2BH         LINE#         309
  C:6E2BH         LINE#         310
  C:6E30H         LINE#         311
  C:6E30H         LINE#         312
  C:6E45H         LINE#         313
  C:6E50H         LINE#         314
  C:6E5FH         LINE#         315
  C:6E5FH         LINE#         316
  C:6E64H         LINE#         317
  C:6E64H         LINE#         318
  C:6E79H         LINE#         319
  C:6E84H         LINE#         320
  C:6E93H         LINE#         321
  C:6E93H         LINE#         323
  C:6E9BH         LINE#         324
  -------         ENDPROC       OSDGETSTARTINDEXADDR
  -------         PROC          _OSDCONFIGWNDSIZE
  D:0007H         SYMBOL        width
  D:0005H         SYMBOL        height
  C:967FH         LINE#         327
  C:967FH         LINE#         328
  C:967FH         LINE#         330
  C:9686H         LINE#         331
  C:9686H         LINE#         332
  C:968BH         LINE#         333
  C:968EH         LINE#         334
  C:968EH         LINE#         335
  C:9692H         LINE#         336
  C:9692H         LINE#         337
  C:9697H         LINE#         338
  C:969AH         LINE#         339
  C:969AH         LINE#         340
  C:969EH         LINE#         341
  C:969EH         LINE#         342
  C:96A3H         LINE#         343
  C:96A6H         LINE#         344
  C:96A6H         LINE#         345
BL51 BANKED LINKER/LOCATER V6.22                                                      06/07/2020  11:08:23  PAGE 40


  C:96AAH         LINE#         346
  C:96AAH         LINE#         347
  C:96AFH         LINE#         348
  C:96B2H         LINE#         349
  C:96B2H         LINE#         350
  C:96B6H         LINE#         351
  C:96B6H         LINE#         352
  C:96BBH         LINE#         353
  C:96BEH         LINE#         354
  C:96BEH         LINE#         355
  -------         ENDPROC       _OSDCONFIGWNDSIZE
  C:9533H         SYMBOL        L?0306
  -------         PROC          L?0305
  -------         ENDPROC       L?0305
  C:9533H         SYMBOL        L?0306
  -------         PROC          OSDGETWNDWIDTH
  C:9538H         LINE#         357
  C:9538H         LINE#         358
  C:9538H         LINE#         359
  C:953FH         LINE#         360
  C:953FH         LINE#         361
  C:9544H         LINE#         362
  C:9544H         LINE#         363
  C:9548H         LINE#         364
  C:9548H         LINE#         365
  C:954DH         LINE#         366
  C:954DH         LINE#         367
  C:9555H         LINE#         368
  C:9555H         LINE#         369
  C:955AH         LINE#         370
  C:955AH         LINE#         371
  C:955EH         LINE#         372
  C:955EH         LINE#         373
  C:9563H         LINE#         374
  C:9563H         LINE#         375
  C:956AH         LINE#         376
  C:956AH         LINE#         377
  C:9572H         LINE#         378
  C:9572H         LINE#         379
  C:9575H         LINE#         380
  -------         ENDPROC       OSDGETWNDWIDTH
  -------         PROC          OSDGETBLOCKSIZE
  -------         DO            
  X:0060H         SYMBOL        wcOsdWndSize
  -------         ENDDO         
  C:8BA4H         LINE#         383
  C:8BA4H         LINE#         384
  C:8BA4H         LINE#         385
  C:8BABH         LINE#         387
  C:8BB2H         LINE#         388
  C:8BB2H         LINE#         389
  C:8BBFH         LINE#         390
  C:8BBFH         LINE#         391
  C:8BC3H         LINE#         392
  C:8BC3H         LINE#         393
  C:8BD2H         LINE#         394
  C:8BD2H         LINE#         395
BL51 BANKED LINKER/LOCATER V6.22                                                      06/07/2020  11:08:23  PAGE 41


  C:8BD9H         LINE#         396
  C:8BD9H         LINE#         397
  C:8BE8H         LINE#         398
  C:8BE8H         LINE#         399
  C:8BF0H         LINE#         400
  C:8BF0H         LINE#         401
  C:8BFFH         LINE#         402
  C:8BFFH         LINE#         403
  C:8C03H         LINE#         404
  C:8C03H         LINE#         405
  C:8C12H         LINE#         406
  C:8C12H         LINE#         408
  C:8C1AH         LINE#         409
  -------         ENDPROC       OSDGETBLOCKSIZE
  -------         PROC          _OSDBLOCKSHOW
  D:0007H         SYMBOL        ucOsdBlockId
  C:A384H         LINE#         412
  C:A384H         LINE#         413
  C:A384H         LINE#         415
  C:A396H         LINE#         416
  -------         ENDPROC       _OSDBLOCKSHOW
  -------         PROC          _OSDBLOCKHIDE
  D:0007H         SYMBOL        ucOsdBlockId
  C:A370H         LINE#         419
  C:A370H         LINE#         420
  C:A370H         LINE#         422
  C:A383H         LINE#         423
  -------         ENDPROC       _OSDBLOCKHIDE
  -------         PROC          OSDHIDE
  C:A52FH         LINE#         425
  C:A52FH         LINE#         426
  C:A52FH         LINE#         428
  C:A536H         LINE#         429
  -------         ENDPROC       OSDHIDE
  -------         PROC          _OSDBLOCKENABLE
  D:0007H         SYMBOL        ucOsdBlockId
  C:A5DAH         LINE#         432
  C:A5DAH         LINE#         433
  C:A5DAH         LINE#         434
  C:A5DFH         LINE#         435
  -------         ENDPROC       _OSDBLOCKENABLE
  -------         PROC          _OSDICONSIZE
  D:0007H         SYMBOL        Size_X
  D:0005H         SYMBOL        Size_Y
  C:A51DH         LINE#         437
  C:A51DH         LINE#         438
  C:A51DH         LINE#         439
  C:A522H         LINE#         440
  C:A525H         LINE#         441
  -------         ENDPROC       _OSDICONSIZE
  -------         PROC          OSDCLEAR
  -------         DO            
  X:0058H         SYMBOL        indexAddr
  -------         ENDDO         
  C:9779H         LINE#         443
  C:9779H         LINE#         444
  C:9779H         LINE#         449
BL51 BANKED LINKER/LOCATER V6.22                                                      06/07/2020  11:08:23  PAGE 42


  C:9780H         LINE#         450
  C:9780H         LINE#         451
  C:978DH         LINE#         452
  C:9792H         LINE#         454
  C:9797H         LINE#         455
  C:979BH         LINE#         456
  C:97B5H         LINE#         457
  -------         ENDPROC       OSDCLEAR
  -------         PROC          _OSDBLOCKCLEAR
  D:0007H         SYMBOL        ucOsdBlockId
  -------         DO            
  X:005CH         SYMBOL        wcIndexAddr
  X:005EH         SYMBOL        wcWinSize
  -------         ENDDO         
  C:8B2CH         LINE#         459
  C:8B2CH         LINE#         460
  C:8B2CH         LINE#         461
  C:8B33H         LINE#         462
  C:8B37H         LINE#         464
  C:8B3AH         LINE#         465
  C:8B45H         LINE#         466
  C:8B50H         LINE#         470
  C:8B64H         LINE#         472
  C:8B69H         LINE#         473
  C:8B72H         LINE#         475
  C:8B87H         LINE#         476
  C:8B87H         LINE#         477
  C:8B8CH         LINE#         478
  C:8B8FH         LINE#         479
  C:8B93H         LINE#         480
  C:8BA3H         LINE#         481
  -------         ENDPROC       _OSDBLOCKCLEAR
  -------         PROC          _OSDWNDCLEAR
  D:002FH         SYMBOL        starRow
  D:0002H         SYMBOL        starLine
  D:0003H         SYMBOL        endRow
  D:0032H         SYMBOL        endLine
  -------         DO            
  X:0063H         SYMBOL        wcStartIndexAddr
  X:0065H         SYMBOL        ucIndexOffset
  X:0067H         SYMBOL        xIndex
  X:0068H         SYMBOL        yIndex
  -------         ENDDO         
  C:76B2H         LINE#         484
  C:76B6H         LINE#         485
  C:76B6H         LINE#         490
  C:76E0H         LINE#         491
  C:76E0H         LINE#         492
  C:76E6H         LINE#         493
  C:76FEH         LINE#         494
  C:770AH         LINE#         496
  C:7714H         LINE#         497
  C:7719H         LINE#         499
  C:7740H         LINE#         500
  C:7740H         LINE#         501
  C:7748H         LINE#         502
  C:774BH         LINE#         503
BL51 BANKED LINKER/LOCATER V6.22                                                      06/07/2020  11:08:23  PAGE 43


  C:774FH         LINE#         504
  C:7765H         LINE#         505
  C:776EH         LINE#         507
  -------         ENDPROC       _OSDWNDCLEAR
  -------         PROC          _OSDCONFIGALPHA
  D:0007H         SYMBOL        enFlg
  D:0005H         SYMBOL        mode
  D:0003H         SYMBOL        alphaLev
  C:9B2DH         LINE#         510
  C:9B2DH         LINE#         511
  C:9B2DH         LINE#         515
  C:9B32H         LINE#         516
  C:9B32H         LINE#         517
  C:9B39H         LINE#         518
  C:9B3CH         LINE#         519
  C:9B3CH         LINE#         520
  C:9B40H         LINE#         521
  C:9B42H         LINE#         523
  C:9B42H         LINE#         524
  C:9B49H         LINE#         525
  C:9B49H         LINE#         526
  C:9B51H         LINE#         527
  C:9B52H         LINE#         529
  C:9B52H         LINE#         530
  C:9B59H         LINE#         531
  C:9B59H         LINE#         532
  -------         ENDPROC       _OSDCONFIGALPHA
  -------         PROC          _OSDCONFIGBRIGHT
  D:0007H         SYMBOL        brightLev
  C:A3EFH         LINE#         535
  C:A3EFH         LINE#         536
  C:A3EFH         LINE#         537
  C:A3FDH         LINE#         538
  -------         ENDPROC       _OSDCONFIGBRIGHT
  -------         PROC          _OSDCONFIGDISPMODE
  D:0007H         SYMBOL        dispMode
  D:0005H         SYMBOL        mirrorMode
  C:93C7H         LINE#         540
  C:93C7H         LINE#         541
  C:93C7H         LINE#         542
  C:93CEH         LINE#         543
  C:93D1H         LINE#         544
  C:93D1H         LINE#         545
  C:93D5H         LINE#         546
  C:93D7H         LINE#         548
  C:93D7H         LINE#         549
  C:93DEH         LINE#         550
  C:93DEH         LINE#         551
  C:93ECH         LINE#         552
  C:93ECH         LINE#         553
  C:93ECH         LINE#         554
  C:93F3H         LINE#         555
  C:93F4H         LINE#         557
  C:93F4H         LINE#         558
  C:93FBH         LINE#         559
  C:93FFH         LINE#         560
  C:9400H         LINE#         562
BL51 BANKED LINKER/LOCATER V6.22                                                      06/07/2020  11:08:23  PAGE 44


  C:9400H         LINE#         563
  C:9407H         LINE#         564
  C:940BH         LINE#         565
  C:940CH         LINE#         567
  C:940CH         LINE#         568
  C:9413H         LINE#         569
  C:9413H         LINE#         571
  C:9413H         LINE#         572
  C:9413H         LINE#         573
  C:9413H         LINE#         574
  -------         ENDPROC       _OSDCONFIGDISPMODE
  -------         PROC          _OSDCONFIGBLOCKCOLOR
  D:0004H         SYMBOL        fbColor
  -------         DO            
  X:005CH         SYMBOL        wcIndexAddr
  X:005EH         SYMBOL        wcWinSize
  -------         ENDDO         
  C:8C91H         LINE#         575
  C:8C93H         LINE#         576
  C:8C93H         LINE#         577
  C:8C9AH         LINE#         578
  C:8C9EH         LINE#         580
  C:8CA9H         LINE#         581
  C:8CB4H         LINE#         582
  C:8CC8H         LINE#         584
  C:8CCDH         LINE#         585
  C:8CD6H         LINE#         587
  C:8CEBH         LINE#         588
  C:8CEBH         LINE#         589
  C:8CF0H         LINE#         590
  C:8CF5H         LINE#         591
  C:8D05H         LINE#         592
  -------         ENDPROC       _OSDCONFIGBLOCKCOLOR
  -------         PROC          _OSDCONFIGWNDPOSITION
  D:002AH         SYMBOL        xPos
  D:0004H         SYMBOL        yPos
  C:7129H         LINE#         594
  C:712DH         LINE#         595
  C:712DH         LINE#         598
  C:7133H         LINE#         599
  C:7133H         LINE#         600
  C:7138H         LINE#         601
  C:713BH         LINE#         602
  C:7142H         LINE#         603
  C:7154H         LINE#         604
  C:7154H         LINE#         605
  C:715CH         LINE#         606
  C:715CH         LINE#         607
  C:7162H         LINE#         608
  C:7165H         LINE#         609
  C:716CH         LINE#         610
  C:717EH         LINE#         611
  C:717EH         LINE#         612
  C:7186H         LINE#         613
  C:7186H         LINE#         614
  C:718CH         LINE#         615
  C:718FH         LINE#         616
BL51 BANKED LINKER/LOCATER V6.22                                                      06/07/2020  11:08:23  PAGE 45


  C:7196H         LINE#         617
  C:71A8H         LINE#         618
  C:71A8H         LINE#         619
  C:71B0H         LINE#         620
  C:71B0H         LINE#         621
  C:71B6H         LINE#         622
  C:71B9H         LINE#         623
  C:71C0H         LINE#         624
  C:71D2H         LINE#         625
  C:71D2H         LINE#         626
  C:71DAH         LINE#         627
  C:71DAH         LINE#         628
  C:71E0H         LINE#         629
  C:71E3H         LINE#         630
  C:71EAH         LINE#         631
  C:71FCH         LINE#         632
  C:71FCH         LINE#         633
  -------         ENDPROC       _OSDCONFIGWNDPOSITION
  -------         PROC          _OSDDRAWSTR
  D:0004H         SYMBOL        starRow
  D:0038H         SYMBOL        starLine
  D:0039H         SYMBOL        fbColor
  D:003AH         SYMBOL        str
  -------         DO            
  X:0065H         SYMBOL        wcStartIndexAddr
  X:0067H         SYMBOL        wcColorStartIndexAddr
  X:0069H         SYMBOL        ucIndexOffset
  -------         ENDDO         
  C:64CEH         LINE#         635
  C:64D4H         LINE#         636
  C:64D4H         LINE#         641
  C:64DFH         LINE#         642
  C:64DFH         LINE#         644
  C:64DFH         LINE#         646
  C:64E5H         LINE#         647
  C:64FDH         LINE#         648
  C:6509H         LINE#         649
  C:6514H         LINE#         651
  C:6519H         LINE#         652
  C:6522H         LINE#         663
  C:6523H         LINE#         664
  C:6525H         LINE#         666
  C:6539H         LINE#         667
  C:6539H         LINE#         668
  C:6541H         LINE#         669
  C:6546H         LINE#         670
  C:6546H         LINE#         671
  C:6547H         LINE#         672
  C:655AH         LINE#         673
  C:655AH         LINE#         678
  C:655CH         LINE#         679
  C:656FH         LINE#         680
  C:656FH         LINE#         682
  C:6570H         LINE#         683
  C:6583H         LINE#         684
  C:6583H         LINE#         689
  C:6585H         LINE#         691
BL51 BANKED LINKER/LOCATER V6.22                                                      06/07/2020  11:08:23  PAGE 46


  C:6585H         LINE#         692
  C:65A0H         LINE#         693
  C:65A5H         LINE#         698
  C:65A5H         LINE#         699
  C:65B3H         LINE#         700
  C:65B4H         LINE#         701
  C:65B6H         LINE#         702
  C:65B9H         LINE#         704
  C:65C6H         LINE#         705
  C:65CBH         LINE#         707
  C:65CFH         LINE#         708
  C:65CFH         LINE#         709
  C:65D7H         LINE#         710
  C:65DDH         LINE#         711
  C:65DFH         LINE#         712
  C:65EDH         LINE#         713
  C:65EFH         LINE#         714
  -------         ENDPROC       _OSDDRAWSTR
  -------         PROC          _OSDDRAWICON
  D:002FH         SYMBOL        starRow
  D:0030H         SYMBOL        starLine
  D:0031H         SYMBOL        xSize
  D:0032H         SYMBOL        ySize
  D:0033H         SYMBOL        BackColor
  D:0034H         SYMBOL        pIconStr
  -------         DO            
  X:005DH         SYMBOL        wcStartIndexAddr
  X:005FH         SYMBOL        ucIndexOffset
  X:0061H         SYMBOL        xIndex
  X:0062H         SYMBOL        yIndex
  X:0063H         SYMBOL        IconIndex
  -------         ENDDO         
  C:5EF2H         LINE#         717
  C:5EF8H         LINE#         718
  C:5EF8H         LINE#         725
  C:5F03H         LINE#         726
  C:5F03H         LINE#         728
  C:5F03H         LINE#         730
  C:5F07H         LINE#         731
  C:5F07H         LINE#         732
  C:5F0EH         LINE#         733
  C:5F10H         LINE#         735
  C:5F10H         LINE#         736
  C:5F17H         LINE#         737
  C:5F2DH         LINE#         738
  C:5F2DH         LINE#         739
  C:5F2DH         LINE#         740
  C:5F32H         LINE#         741
  C:5F32H         LINE#         742
  C:5F34H         LINE#         744
  C:5F34H         LINE#         745
  C:5F39H         LINE#         746
  C:5F39H         LINE#         747
  C:5F3BH         LINE#         749
  C:5F3BH         LINE#         750
  C:5F40H         LINE#         751
  C:5F40H         LINE#         752
BL51 BANKED LINKER/LOCATER V6.22                                                      06/07/2020  11:08:23  PAGE 47


  C:5F42H         LINE#         754
  C:5F42H         LINE#         755
  C:5F48H         LINE#         756
  C:5F4BH         LINE#         757
  C:5F4DH         LINE#         759
  C:5F4DH         LINE#         760
  C:5F53H         LINE#         761
  C:5F57H         LINE#         762
  C:5F59H         LINE#         764
  C:5F59H         LINE#         765
  C:5F5FH         LINE#         766
  C:5F63H         LINE#         767
  C:5F63H         LINE#         769
  C:5F63H         LINE#         771
  C:5F63H         LINE#         773
  C:5F83H         LINE#         774
  C:5F83H         LINE#         775
  C:5F89H         LINE#         776
  C:5FA4H         LINE#         777
  C:5FB0H         LINE#         779
  C:5FBAH         LINE#         780
  C:5FBFH         LINE#         782
  C:5FDCH         LINE#         783
  C:5FDCH         LINE#         784
  C:5FEFH         LINE#         785
  C:5FF7H         LINE#         786
  C:6004H         LINE#         787
  C:6009H         LINE#         788
  C:6014H         LINE#         789
  C:601CH         LINE#         790
  C:6025H         LINE#         792
  -------         ENDPROC       _OSDDRAWICON
  -------         PROC          _DMALOADFONTRAM
  D:002AH         SYMBOL        SrcAddr
  D:002EH         SYMBOL        DstAddr
  D:0030H         SYMBOL        numOper
  C:8D06H         LINE#         795
  C:8D0EH         LINE#         796
  C:8D0EH         LINE#         797
  C:8D10H         LINE#         798
  C:8D17H         LINE#         799
  C:8D1DH         LINE#         800
  C:8D22H         LINE#         801
  C:8D25H         LINE#         802
  C:8D2BH         LINE#         803
  C:8D3AH         LINE#         804
  C:8D4AH         LINE#         805
  C:8D4EH         LINE#         806
  C:8D52H         LINE#         807
  C:8D57H         LINE#         808
  C:8D61H         LINE#         809
  C:8D67H         LINE#         810
  C:8D6EH         LINE#         811
  C:8D75H         LINE#         812
  C:8D78H         LINE#         813
  C:8D7AH         LINE#         815
  -------         ENDPROC       _DMALOADFONTRAM
BL51 BANKED LINKER/LOCATER V6.22                                                      06/07/2020  11:08:23  PAGE 48


  -------         PROC          _OSDWRITECHARTOFONTRAM
  D:004AH         SYMBOL        indexAddr
  D:004BH         SYMBOL        pCharData
  -------         DO            
  X:0096H         SYMBOL        i
  X:0097H         SYMBOL        IconSize
  X:0098H         SYMBOL        Size_X
  X:0099H         SYMBOL        Size_Y
  -------         ENDDO         
  C:7470H         LINE#         818
  C:7478H         LINE#         819
  C:7478H         LINE#         824
  C:7480H         LINE#         825
  C:7480H         LINE#         827
  C:7480H         LINE#         829
  C:7488H         LINE#         830
  C:7490H         LINE#         832
  C:7499H         LINE#         833
  C:7499H         LINE#         834
  C:749BH         LINE#         835
  C:749DH         LINE#         836
  C:74A4H         LINE#         837
  C:74A4H         LINE#         838
  C:74AFH         LINE#         839
  C:74B1H         LINE#         841
  C:74B1H         LINE#         842
  C:74C5H         LINE#         843
  C:74C5H         LINE#         845
  C:74D1H         LINE#         847
  C:74E3H         LINE#         848
  C:74E3H         LINE#         849
  C:74F9H         LINE#         850
  C:7514H         LINE#         851
  C:7529H         LINE#         852
  C:7531H         LINE#         853
  -------         ENDPROC       _OSDWRITECHARTOFONTRAM
  -------         PROC          _LOADMULCHARTOFONTRAM
  D:002AH         SYMBOL        indexAddr
  D:002BH         SYMBOL        Size
  D:002CH         SYMBOL        pCharData
  -------         DO            
  X:0058H         SYMBOL        i
  X:0059H         SYMBOL        j
  X:005AH         SYMBOL        IconSize
  X:005BH         SYMBOL        Size_X
  X:005CH         SYMBOL        Size_Y
  -------         ENDDO         
  C:6A0BH         LINE#         856
  C:6A15H         LINE#         857
  C:6A15H         LINE#         862
  C:6A1DH         LINE#         863
  C:6A1DH         LINE#         865
  C:6A1DH         LINE#         867
  C:6A25H         LINE#         868
  C:6A2DH         LINE#         870
  C:6A36H         LINE#         871
  C:6A36H         LINE#         872
BL51 BANKED LINKER/LOCATER V6.22                                                      06/07/2020  11:08:23  PAGE 49


  C:6A38H         LINE#         873
  C:6A3AH         LINE#         874
  C:6A41H         LINE#         875
  C:6A41H         LINE#         876
  C:6A4CH         LINE#         877
  C:6A4EH         LINE#         879
  C:6A4EH         LINE#         880
  C:6A62H         LINE#         881
  C:6A62H         LINE#         883
  C:6A6EH         LINE#         885
  C:6A7CH         LINE#         886
  C:6A7CH         LINE#         887
  C:6A8CH         LINE#         888
  C:6A8CH         LINE#         889
  C:6AA2H         LINE#         890
  C:6ABDH         LINE#         891
  C:6AD2H         LINE#         892
  C:6ADAH         LINE#         893
  C:6AEDH         LINE#         894
  C:6AEFH         LINE#         895
  C:6AF8H         LINE#         896
  -------         ENDPROC       _LOADMULCHARTOFONTRAM
  -------         PROC          _LOADBITMAPTOFONTRAM
  D:003FH         SYMBOL        indexAddr
  D:0040H         SYMBOL        BitMapSize
  D:0041H         SYMBOL        pBitMapData
  -------         DO            
  X:00A5H         SYMBOL        i
  X:00A6H         SYMBOL        FontRamSize
  D:0044H         SYMBOL        BitMap_Size
  D:0002H         SYMBOL        Size_X
  D:0046H         SYMBOL        Size_Y
  D:0048H         SYMBOL        Ramdata
  -------         ENDDO         
  C:65F0H         LINE#         899
  C:65FAH         LINE#         900
  C:65FAH         LINE#         904
  C:6602H         LINE#         905
  C:6602H         LINE#         907
  C:6602H         LINE#         908
  C:6609H         LINE#         909
  C:6610H         LINE#         911
  C:6615H         LINE#         912
  C:6615H         LINE#         913
  C:6628H         LINE#         914
  C:662AH         LINE#         915
  C:6631H         LINE#         916
  C:6631H         LINE#         917
  C:6639H         LINE#         918
  C:663BH         LINE#         920
  C:663BH         LINE#         921
  C:6652H         LINE#         922
  C:6652H         LINE#         923
  C:665BH         LINE#         924
  C:665BH         LINE#         925
  C:6661H         LINE#         926
  C:6663H         LINE#         928
BL51 BANKED LINKER/LOCATER V6.22                                                      06/07/2020  11:08:23  PAGE 50


  C:6663H         LINE#         929
  C:666BH         LINE#         930
  C:666BH         LINE#         932
  C:6677H         LINE#         933
  C:6688H         LINE#         934
  C:6688H         LINE#         935
  C:669FH         LINE#         936
  C:669FH         LINE#         937
  C:66C3H         LINE#         938
  C:66DDH         LINE#         939
  C:66EDH         LINE#         940
  C:66F7H         LINE#         941
  C:6703H         LINE#         942
  C:670CH         LINE#         943
  -------         ENDPROC       _LOADBITMAPTOFONTRAM
  -------         PROC          _OSDDRAWNUM
  D:0032H         SYMBOL        starRow
  D:0033H         SYMBOL        starLine
  D:0034H         SYMBOL        fbColor
  D:0035H         SYMBOL        value
  -------         DO            
  C:47C5H         SYMBOL        DatBuf
  X:005EH         SYMBOL        DispValBuf
  X:0063H         SYMBOL        tmpvalue
  -------         ENDDO         
  C:59AEH         LINE#         946
  C:59B4H         LINE#         947
  C:59B4H         LINE#         950
  C:59C7H         LINE#         953
  C:59D0H         LINE#         954
  C:59D0H         LINE#         955
  C:59DAH         LINE#         956
  C:59DCH         LINE#         958
  C:59DCH         LINE#         959
  C:59F1H         LINE#         960
  C:59F1H         LINE#         963
  C:59FDH         LINE#         964
  C:59FDH         LINE#         965
  C:59FFH         LINE#         966
  C:59FFH         LINE#         967
  C:59FFH         LINE#         968
  C:59FFH         LINE#         969
  C:5A01H         LINE#         971
  C:5A01H         LINE#         972
  C:5A04H         LINE#         973
  C:5A26H         LINE#         974
  C:5A50H         LINE#         975
  C:5A6BH         LINE#         977
  C:5A6BH         LINE#         990
  C:5A74H         LINE#         991
  C:5A74H         LINE#         992
  C:5A8AH         LINE#         993
  C:5A8AH         LINE#         994
  C:5A90H         LINE#         995
  C:5AACH         LINE#         996
  C:5AACH         LINE#         997
  C:5AB0H         LINE#         998
BL51 BANKED LINKER/LOCATER V6.22                                                      06/07/2020  11:08:23  PAGE 51


  C:5AB0H         LINE#         999
  C:5AB0H         LINE#         1001
  C:5AB2H         LINE#         1003
  C:5AB2H         LINE#         1004
  C:5AC8H         LINE#         1005
  C:5AC8H         LINE#         1006
  C:5ACEH         LINE#         1007
  C:5AD2H         LINE#         1008
  C:5AEEH         LINE#         1009
  C:5AEEH         LINE#         1010
  C:5AF1H         LINE#         1011
  C:5AF5H         LINE#         1012
  C:5AF5H         LINE#         1013
  C:5AF5H         LINE#         1014
  C:5AF5H         LINE#         1017
  -------         ENDPROC       _OSDDRAWNUM
  -------         PROC          _OSDDRAWHEX
  D:0032H         SYMBOL        starRow
  D:0033H         SYMBOL        starLine
  D:0034H         SYMBOL        fbColor
  D:0035H         SYMBOL        value
  -------         DO            
  C:47D4H         SYMBOL        HexDatBuf
  X:005EH         SYMBOL        HexDispValBuf
  -------         ENDDO         
  C:7A4EH         LINE#         1020
  C:7A54H         LINE#         1021
  C:7A54H         LINE#         1025
  C:7A67H         LINE#         1033
  C:7A82H         LINE#         1034
  C:7AACH         LINE#         1035
  C:7AD6H         LINE#         1036
  C:7AF1H         LINE#         1039
  -------         ENDPROC       _OSDDRAWHEX
  -------         PROC          _OSDDRAWGUAGE
  D:0004H         SYMBOL        starRow
  D:0002H         SYMBOL        starLine
  D:0003H         SYMBOL        length
  D:0035H         SYMBOL        fbColor
  D:0036H         SYMBOL        value
  -------         DO            
  C:47E9H         SYMBOL        GuageStepBuf
  X:005EH         SYMBOL        wcStartIndexAddr
  X:0060H         SYMBOL        wcColorStartIndexAddr
  X:0062H         SYMBOL        i
  X:0064H         SYMBOL        ucIndexOffset
  D:0005H         SYMBOL        result
  -------         ENDDO         
  C:5DADH         LINE#         1042
  C:5DB1H         LINE#         1043
  C:5DB1H         LINE#         1059
  C:5DB7H         LINE#         1060
  C:5DCDH         LINE#         1061
  C:5DE1H         LINE#         1062
  C:5DECH         LINE#         1064
  C:5DF1H         LINE#         1065
  C:5DFAH         LINE#         1067
BL51 BANKED LINKER/LOCATER V6.22                                                      06/07/2020  11:08:23  PAGE 52


  C:5E0AH         LINE#         1069
  C:5E11H         LINE#         1070
  C:5E11H         LINE#         1071
  C:5E19H         LINE#         1072
  C:5E1FH         LINE#         1073
  C:5E1FH         LINE#         1074
  C:5E24H         LINE#         1075
  C:5E24H         LINE#         1076
  C:5E2DH         LINE#         1077
  C:5E37H         LINE#         1078
  C:5E3BH         LINE#         1079
  C:5E3DH         LINE#         1081
  C:5E3DH         LINE#         1082
  C:5E52H         LINE#         1083
  C:5E67H         LINE#         1084
  C:5E69H         LINE#         1085
  C:5E69H         LINE#         1086
  C:5E6BH         LINE#         1088
  C:5E6BH         LINE#         1089
  C:5E7DH         LINE#         1090
  C:5E90H         LINE#         1091
  C:5E90H         LINE#         1092
  C:5E9EH         LINE#         1093
  C:5EBBH         LINE#         1098
  C:5EC8H         LINE#         1099
  C:5ECDH         LINE#         1100
  C:5ECFH         LINE#         1102
  C:5ED2H         LINE#         1103
  C:5ED2H         LINE#         1104
  C:5EDAH         LINE#         1105
  C:5EE0H         LINE#         1106
  C:5EE1H         LINE#         1107
  C:5EEFH         LINE#         1108
  C:5EF1H         LINE#         1109
  -------         ENDPROC       _OSDDRAWGUAGE
  -------         PROC          _OSDCONFIGSCALER
  D:0007H         SYMBOL        zoom
  C:782BH         LINE#         1112
  C:782BH         LINE#         1113
  C:782BH         LINE#         1116
  C:7832H         LINE#         1117
  C:7832H         LINE#         1118
  C:7838H         LINE#         1119
  C:7838H         LINE#         1120
  C:783EH         LINE#         1121
  C:7840H         LINE#         1122
  C:7842H         LINE#         1123
  C:7846H         LINE#         1124
  C:7848H         LINE#         1125
  C:784AH         LINE#         1127
  C:784CH         LINE#         1128
  C:7851H         LINE#         1129
  C:7857H         LINE#         1130
  C:785CH         LINE#         1131
  C:785FH         LINE#         1133
  C:7861H         LINE#         1134
  C:7866H         LINE#         1135
BL51 BANKED LINKER/LOCATER V6.22                                                      06/07/2020  11:08:23  PAGE 53


  C:7866H         LINE#         1136
  C:786AH         LINE#         1137
  C:786CH         LINE#         1138
  C:786EH         LINE#         1139
  C:7872H         LINE#         1140
  C:7874H         LINE#         1141
  C:7876H         LINE#         1142
  C:7878H         LINE#         1143
  C:7878H         LINE#         1144
  C:7878H         LINE#         1145
  C:787CH         LINE#         1146
  C:787CH         LINE#         1147
  C:787DH         LINE#         1148
  C:787DH         LINE#         1149
  C:7884H         LINE#         1150
  C:788BH         LINE#         1151
  C:788EH         LINE#         1152
  C:788EH         LINE#         1153
  C:7896H         LINE#         1154
  C:7896H         LINE#         1155
  C:7897H         LINE#         1156
  C:789CH         LINE#         1157
  C:78A2H         LINE#         1158
  C:78A9H         LINE#         1159
  C:78ACH         LINE#         1160
  C:78ACH         LINE#         1161
  C:78B4H         LINE#         1162
  C:78B4H         LINE#         1163
  C:78B5H         LINE#         1164
  C:78B5H         LINE#         1165
  C:78BCH         LINE#         1166
  C:78C3H         LINE#         1167
  C:78C6H         LINE#         1168
  C:78C6H         LINE#         1169
  C:78CBH         LINE#         1170
  C:78CBH         LINE#         1171
  C:78CCH         LINE#         1172
  C:78D1H         LINE#         1173
  C:78D7H         LINE#         1174
  C:78DEH         LINE#         1175
  C:78E1H         LINE#         1176
  C:78E1H         LINE#         1177
  -------         ENDPROC       _OSDCONFIGSCALER
  -------         PROC          _OSDCONFIGBITMAPSTARINDEX
  D:0007H         SYMBOL        starIndexAddr
  C:A4DDH         LINE#         1179
  C:A4DDH         LINE#         1180
  C:A4DDH         LINE#         1181
  C:A4E2H         LINE#         1182
  C:A4E7H         LINE#         1183
  -------         ENDPROC       _OSDCONFIGBITMAPSTARINDEX
  -------         PROC          _OSDCONFIGCOLORCHANGERGB
  D:0007H         SYMBOL        R
  D:0005H         SYMBOL        G
  D:0003H         SYMBOL        B
  C:A471H         LINE#         1186
  C:A471H         LINE#         1187
BL51 BANKED LINKER/LOCATER V6.22                                                      06/07/2020  11:08:23  PAGE 54


  C:A471H         LINE#         1188
  C:A476H         LINE#         1189
  C:A479H         LINE#         1190
  C:A47CH         LINE#         1191
  -------         ENDPROC       _OSDCONFIGCOLORCHANGERGB
  -------         PROC          _OSDCOLORCHANGESWITCH
  D:0007H         SYMBOL        operatDat
  C:A4E8H         LINE#         1192
  C:A4E8H         LINE#         1193
  C:A4E8H         LINE#         1194
  C:A4EFH         LINE#         1195
  C:A4F2H         LINE#         1196
  -------         ENDPROC       _OSDCOLORCHANGESWITCH
  -------         PROC          _OSDCONFIGCOLORCHANGWNDSIZE
  D:0051H         SYMBOL        Length
  D:0004H         SYMBOL        Width
  C:9A1AH         LINE#         1198
  C:9A1EH         LINE#         1199
  C:9A1EH         LINE#         1202
  C:9A23H         LINE#         1203
  C:9A26H         LINE#         1204
  C:9A33H         LINE#         1205
  C:9A38H         LINE#         1206
  C:9A47H         LINE#         1207
  -------         ENDPROC       _OSDCONFIGCOLORCHANGWNDSIZE
  -------         PROC          _OSDCONFIGCOLORCHANGWNDPOSITION
  D:0053H         SYMBOL        XPos
  D:0004H         SYMBOL        YPos
  C:9BB4H         LINE#         1209
  C:9BB8H         LINE#         1210
  C:9BB8H         LINE#         1212
  C:9BBDH         LINE#         1213
  C:9BC0H         LINE#         1214
  C:9BCBH         LINE#         1215
  C:9BD0H         LINE#         1216
  C:9BDFH         LINE#         1217
  -------         ENDPROC       _OSDCONFIGCOLORCHANGWNDPOSITION
  -------         ENDMOD        ARKCHIP

  -------         MODULE        MCU
  C:0000H         SYMBOL        _ICE_DUMMY_
  D:0080H         PUBLIC        P0
  D:0090H         PUBLIC        P1
  D:00A0H         PUBLIC        P2
  D:00B0H         PUBLIC        P3
  B:00A8H.7       PUBLIC        EA
  D:00BEH         PUBLIC        WDT_UPDATE_EN
  D:00A8H         PUBLIC        IE
  D:00B2H         PUBLIC        T3_CNTH
  D:00B4H         PUBLIC        T4_CNTH
  B:00A8H.4       PUBLIC        ES
  D:00B8H         PUBLIC        IP
  D:00B1H         PUBLIC        T3_CNTL
  B:0098H.0       PUBLIC        RI
  D:00B3H         PUBLIC        T4_CNTL
  B:0098H.1       PUBLIC        TI
  D:00CBH         PUBLIC        RCAP2H
BL51 BANKED LINKER/LOCATER V6.22                                                      06/07/2020  11:08:23  PAGE 55


  D:00BDH         PUBLIC        WDT_COUNTH
  D:00CAH         PUBLIC        RCAP2L
  D:00BCH         PUBLIC        WDT_COUNTL
  D:0091H         PUBLIC        EXIF
  D:00BBH         PUBLIC        WDT_CLR
  D:0098H         PUBLIC        SCON
  D:0089H         PUBLIC        TMOD
  D:0088H         PUBLIC        TCON
  C:A3FEH         PUBLIC        InitMcu
  B:0088H.1       PUBLIC        IE0
  C:8D7BH         PUBLIC        _SetT2BaudRate
  C:A537H         PUBLIC        InitialPPort
  B:00A8H.1       PUBLIC        ET0
  B:00A8H.3       PUBLIC        ET1
  B:00A8H.5       PUBLIC        ET2
  D:008CH         PUBLIC        TH0
  B:00A8H.0       PUBLIC        EX0
  B:0088H.0       PUBLIC        IT0
  D:008DH         PUBLIC        TH1
  B:00E8H.0       PUBLIC        EX2
  B:00E8H.1       PUBLIC        EX3
  D:008AH         PUBLIC        TL0
  B:00E8H.2       PUBLIC        EX4
  D:008BH         PUBLIC        TL1
  B:00E8H.3       PUBLIC        EX5
  C:9DF9H         PUBLIC        InitialTimer
  D:00E8H         PUBLIC        EIE
  C:0EF5H         PUBLIC        POS_ClearWatchDog
  C:9D83H         PUBLIC        InitialExtInterrupt
  B:0088H.4       PUBLIC        TR0
  B:0088H.6       PUBLIC        TR1
  B:00C8H.2       PUBLIC        TR2
  B:00F8H.0       PUBLIC        PX2
  C:A1CCH         PUBLIC        InitialSerialPort
  B:00F8H.1       PUBLIC        PX3
  B:00F8H.2       PUBLIC        PX4
  B:00F8H.3       PUBLIC        PX5
  D:00BAH         PUBLIC        WDT_RSTEN
  D:00F8H         PUBLIC        EIP
  D:00B9H         PUBLIC        MCU_CLK_REG
  C:A397H         PUBLIC        InitialWatchDog
  D:00C0H         PUBLIC        SCON1
  D:00C8H         PUBLIC        T2CON
  C:A509H         PUBLIC        DisableWatchdog
  D:00D8H         PUBLIC        EICON
  D:00D0H         PUBLIC        PSW
  -------         PROC          INITIALPPORT
  C:A537H         LINE#         52
  C:A537H         LINE#         53
  C:A537H         LINE#         75
  C:A53CH         LINE#         76
  C:A53EH         LINE#         91
  -------         ENDPROC       INITIALPPORT
  -------         PROC          INITIALTIMER
  C:9DF9H         LINE#         122
  C:9DF9H         LINE#         123
  C:9DF9H         LINE#         125
BL51 BANKED LINKER/LOCATER V6.22                                                      06/07/2020  11:08:23  PAGE 56


  C:9DFBH         LINE#         126
  C:9DFDH         LINE#         129
  C:9E00H         LINE#         130
  C:9E06H         LINE#         131
  C:9E0CH         LINE#         132
  C:9E11H         LINE#         133
  C:9E15H         LINE#         136
  C:9E17H         LINE#         137
  C:9E19H         LINE#         140
  C:9E1BH         LINE#         141
  C:9E1DH         LINE#         142
  -------         ENDPROC       INITIALTIMER
  -------         PROC          _SETT2BAUDRATE
  D:0028H         SYMBOL        Brate
  C:8D7BH         LINE#         155
  C:8D83H         LINE#         156
  C:8D83H         LINE#         157
  C:8D86H         LINE#         158
  C:8D89H         LINE#         161
  C:8DC3H         LINE#         162
  C:8DECH         LINE#         164
  -------         ENDPROC       _SETT2BAUDRATE
  -------         PROC          INITIALSERIALPORT
  C:A1CCH         LINE#         177
  C:A1CCH         LINE#         178
  C:A1CCH         LINE#         179
  C:A1CEH         LINE#         181
  C:A1D9H         LINE#         182
  C:A1DBH         LINE#         183
  C:A1DDH         LINE#         185
  C:A1DFH         LINE#         186
  C:A1E1H         LINE#         189
  C:A1E3H         LINE#         190
  -------         ENDPROC       INITIALSERIALPORT
  -------         PROC          DISABLEWATCHDOG
  C:A509H         LINE#         205
  C:A509H         LINE#         206
  C:A509H         LINE#         208
  C:A50CH         LINE#         209
  C:A50FH         LINE#         210
  C:A512H         LINE#         211
  -------         ENDPROC       DISABLEWATCHDOG
  -------         PROC          INITIALWATCHDOG
  C:A397H         LINE#         226
  C:A397H         LINE#         227
  C:A397H         LINE#         229
  C:A39AH         LINE#         230
  C:A39DH         LINE#         231
  C:A3A0H         LINE#         232
  C:A3A3H         LINE#         233
  C:A3A6H         LINE#         234
  C:A3A9H         LINE#         235
  -------         ENDPROC       INITIALWATCHDOG
  -------         PROC          POS_CLEARWATCHDOG
  C:0EF5H         LINE#         250
  C:0EF5H         LINE#         251
  C:0EF5H         LINE#         252
BL51 BANKED LINKER/LOCATER V6.22                                                      06/07/2020  11:08:23  PAGE 57


  C:0EF8H         LINE#         253
  C:0EFBH         LINE#         254
  C:0EFEH         LINE#         255
  C:0F01H         LINE#         256
  C:0F04H         LINE#         257
  -------         ENDPROC       POS_CLEARWATCHDOG
  -------         PROC          INITIALEXTINTERRUPT
  C:9D83H         LINE#         277
  C:9D83H         LINE#         278
  C:9D83H         LINE#         279
  C:9D86H         LINE#         282
  C:9D88H         LINE#         283
  C:9D8AH         LINE#         286
  C:9D8DH         LINE#         289
  C:9D90H         LINE#         292
  C:9D93H         LINE#         295
  C:9D96H         LINE#         298
  C:9D98H         LINE#         301
  C:9D9AH         LINE#         304
  C:9D9CH         LINE#         307
  C:9D9EH         LINE#         314
  C:9DA0H         LINE#         317
  C:9DA2H         LINE#         318
  C:9DA4H         LINE#         319
  C:9DA6H         LINE#         320
  C:9DA8H         LINE#         323
  C:9DAAH         LINE#         324
  -------         ENDPROC       INITIALEXTINTERRUPT
  -------         PROC          INITMCU
  C:A3FEH         LINE#         344
  C:A3FEH         LINE#         345
  C:A3FEH         LINE#         346
  C:A401H         LINE#         347
  C:A404H         LINE#         348
  C:A407H         LINE#         349
  C:A40AH         LINE#         350
  -------         ENDPROC       INITMCU
  -------         ENDMOD        MCU

  -------         MODULE        E2PROM
  C:0000H         SYMBOL        _ICE_DUMMY_
  D:0080H         PUBLIC        P0
  D:0090H         PUBLIC        P1
  D:00A0H         PUBLIC        P2
  D:00B0H         PUBLIC        P3
  D:00A8H         PUBLIC        IE
  D:00B8H         PUBLIC        IP
  D:0098H         PUBLIC        SCON
  D:0088H         PUBLIC        TCON
  D:00E8H         PUBLIC        EIE
  D:00F8H         PUBLIC        EIP
  D:00C0H         PUBLIC        SCON1
  D:00C8H         PUBLIC        T2CON
  D:00D8H         PUBLIC        EICON
  D:00D0H         PUBLIC        PSW
  -------         ENDMOD        E2PROM

BL51 BANKED LINKER/LOCATER V6.22                                                      06/07/2020  11:08:23  PAGE 58


  -------         MODULE        FLASH
  C:0000H         SYMBOL        _ICE_DUMMY_
  D:0080H         PUBLIC        P0
  D:0090H         PUBLIC        P1
  D:00A0H         PUBLIC        P2
  D:00B0H         PUBLIC        P3
  C:A01AH         PUBLIC        SoftwareBlockUnprotect
  D:00A8H         PUBLIC        IE
  C:8302H         PUBLIC        AutoDetectFlashType
  D:00B8H         PUBLIC        IP
  C:9F96H         PUBLIC        SoftwareBlockProtect
  D:0098H         PUBLIC        SCON
  D:0088H         PUBLIC        TCON
  X:00ACH         PUBLIC        g_ucFlashTpye
  C:8088H         PUBLIC        _ReadFlashSysPara
  C:A1E4H         PUBLIC        WriteDisable
  C:6F7AH         PUBLIC        _WriteFlashSysPara
  C:776FH         PUBLIC        _EnableFlashUnprotected
  D:00E8H         PUBLIC        EIE
  C:78E2H         PUBLIC        _EraseFlashSector
  D:00F8H         PUBLIC        EIP
  C:A53FH         PUBLIC        CheckIdle
  D:00C0H         PUBLIC        SCON1
  D:00C8H         PUBLIC        T2CON
  C:941CH         PUBLIC        _VerifyFlashDate
  D:00D8H         PUBLIC        EICON
  C:A547H         PUBLIC        Flash_comd
  D:00D0H         PUBLIC        PSW
  -------         PROC          CHECKIDLE
  C:A53FH         LINE#         51
  C:A53FH         LINE#         52
  C:A53FH         LINE#         53
  C:A546H         LINE#         54
  -------         ENDPROC       CHECKIDLE
  -------         PROC          SOFTWAREBLOCKPROTECT
  C:9F96H         LINE#         57
  C:9F96H         LINE#         58
  C:9F96H         LINE#         59
  C:9F99H         LINE#         60
  C:9F9EH         LINE#         61
  C:9FA2H         LINE#         62
  C:9FA8H         LINE#         63
  C:9FAEH         LINE#         64
  C:9FB4H         LINE#         65
  -------         ENDPROC       SOFTWAREBLOCKPROTECT
  -------         PROC          SOFTWAREBLOCKUNPROTECT
  C:A01AH         LINE#         68
  C:A01AH         LINE#         69
  C:A01AH         LINE#         70
  C:A01DH         LINE#         71
  C:A022H         LINE#         72
  C:A026H         LINE#         73
  C:A02BH         LINE#         74
  C:A031H         LINE#         75
  C:A037H         LINE#         76
  -------         ENDPROC       SOFTWAREBLOCKUNPROTECT
  -------         PROC          WRITEDISABLE
BL51 BANKED LINKER/LOCATER V6.22                                                      06/07/2020  11:08:23  PAGE 59


  C:A1E4H         LINE#         93
  C:A1E4H         LINE#         94
  C:A1E4H         LINE#         95
  C:A1E7H         LINE#         96
  C:A1EDH         LINE#         97
  C:A1F3H         LINE#         98
  C:A1F9H         LINE#         99
  -------         ENDPROC       WRITEDISABLE
  -------         PROC          _ENABLEFLASHUNPROTECTED
  D:003BH         SYMBOL        stAddr
  C:776FH         LINE#         113
  C:7777H         LINE#         114
  C:7777H         LINE#         115
  C:7799H         LINE#         116
  C:7799H         LINE#         117
  C:779AH         LINE#         118
  C:779CH         LINE#         121
  C:77B0H         LINE#         122
  C:77B0H         LINE#         123
  C:77B3H         LINE#         125
  C:77B6H         LINE#         126
  C:77BCH         LINE#         127
  C:77C1H         LINE#         129
  C:77C5H         LINE#         130
  C:77C9H         LINE#         131
  C:77CCH         LINE#         133
  C:77D4H         LINE#         134
  C:77DAH         LINE#         135
  C:77E0H         LINE#         136
  C:77E3H         LINE#         137
  C:77E3H         LINE#         139
  C:77F7H         LINE#         140
  C:77F7H         LINE#         141
  C:77FAH         LINE#         143
  C:77FDH         LINE#         144
  C:7803H         LINE#         145
  C:7808H         LINE#         147
  C:780CH         LINE#         148
  C:7810H         LINE#         149
  C:7813H         LINE#         151
  C:781BH         LINE#         152
  C:7821H         LINE#         153
  C:7827H         LINE#         154
  C:782AH         LINE#         155
  C:782AH         LINE#         156
  -------         ENDPROC       _ENABLEFLASHUNPROTECTED
  -------         PROC          _ERASEFLASHSECTOR
  D:003BH         SYMBOL        stAddr
  C:78E2H         LINE#         169
  C:78EAH         LINE#         170
  C:78EAH         LINE#         172
  C:790CH         LINE#         173
  C:790CH         LINE#         174
  C:790DH         LINE#         175
  C:790FH         LINE#         177
  C:7923H         LINE#         178
  C:7923H         LINE#         179
BL51 BANKED LINKER/LOCATER V6.22                                                      06/07/2020  11:08:23  PAGE 60


  C:7926H         LINE#         180
  C:792CH         LINE#         181
  C:7931H         LINE#         183
  C:7935H         LINE#         184
  C:7939H         LINE#         185
  C:793CH         LINE#         187
  C:7944H         LINE#         188
  C:794AH         LINE#         189
  C:7950H         LINE#         190
  C:7953H         LINE#         191
  C:7953H         LINE#         193
  C:7967H         LINE#         194
  C:7967H         LINE#         195
  C:796AH         LINE#         196
  C:7970H         LINE#         197
  C:7975H         LINE#         199
  C:7979H         LINE#         200
  C:797DH         LINE#         201
  C:7980H         LINE#         203
  C:7988H         LINE#         204
  C:798EH         LINE#         205
  C:7994H         LINE#         206
  C:7997H         LINE#         207
  C:7997H         LINE#         208
  -------         ENDPROC       _ERASEFLASHSECTOR
  -------         PROC          _READFLASHSYSPARA
  D:002CH         SYMBOL        stAddr
  D:0030H         SYMBOL        pSysPara
  D:0033H         SYMBOL        numOper
  -------         DO            
  D:0035H         SYMBOL        i
  D:0007H         SYMBOL        j
  -------         ENDDO         
  C:8088H         LINE#         221
  C:8096H         LINE#         222
  C:8096H         LINE#         226
  C:8099H         LINE#         227
  C:809CH         LINE#         228
  C:809FH         LINE#         229
  C:80A5H         LINE#         231
  C:80B5H         LINE#         232
  C:80B5H         LINE#         233
  C:80BAH         LINE#         235
  C:80C0H         LINE#         236
  C:80CFH         LINE#         237
  C:80DFH         LINE#         239
  C:80E5H         LINE#         241
  C:80E7H         LINE#         242
  C:80E7H         LINE#         243
  C:80EEH         LINE#         244
  C:80EEH         LINE#         245
  C:8101H         LINE#         246
  C:8103H         LINE#         247
  C:8103H         LINE#         248
  C:8107H         LINE#         249
  C:811CH         LINE#         250
  C:811FH         LINE#         251
BL51 BANKED LINKER/LOCATER V6.22                                                      06/07/2020  11:08:23  PAGE 61


  C:8129H         LINE#         252
  -------         ENDPROC       _READFLASHSYSPARA
  -------         PROC          _WRITEFLASHSYSPARA
  D:002FH         SYMBOL        stAddr
  D:0033H         SYMBOL        ramdataAddr
  D:0035H         SYMBOL        numOper
  -------         DO            
  D:0037H         SYMBOL        Length
  D:0039H         SYMBOL        maxOperNum
  -------         ENDDO         
  C:6F7AH         LINE#         270
  C:6F82H         LINE#         271
  C:6F82H         LINE#         273
  C:6F88H         LINE#         275
  C:6F8BH         LINE#         276
  C:6F96H         LINE#         278
  C:6FA4H         LINE#         279
  C:6FA4H         LINE#         280
  C:6FA7H         LINE#         282
  C:6FADH         LINE#         283
  C:6FB2H         LINE#         285
  C:6FB8H         LINE#         286
  C:6FC7H         LINE#         287
  C:6FD7H         LINE#         289
  C:6FDBH         LINE#         290
  C:6FDFH         LINE#         291
  C:6FE3H         LINE#         293
  C:6FEEH         LINE#         294
  C:6FEEH         LINE#         295
  C:6FF4H         LINE#         296
  C:6FF6H         LINE#         298
  C:6FF6H         LINE#         299
  C:6FFCH         LINE#         300
  C:6FFCH         LINE#         302
  C:7003H         LINE#         303
  C:7003H         LINE#         304
  C:7009H         LINE#         305
  C:7009H         LINE#         307
  C:7010H         LINE#         308
  C:7013H         LINE#         310
  C:7019H         LINE#         312
  C:7032H         LINE#         313
  C:703EH         LINE#         314
  C:704BH         LINE#         316
  C:704EH         LINE#         318
  C:7051H         LINE#         319
  -------         ENDPROC       _WRITEFLASHSYSPARA
  C:9414H         SYMBOL        L?0058
  -------         PROC          L?0057
  -------         ENDPROC       L?0057
  C:9414H         SYMBOL        L?0058
  -------         PROC          _VERIFYFLASHDATE
  D:0028H         SYMBOL        stAddr
  -------         DO            
  X:0059H         SYMBOL        i
  -------         ENDDO         
  C:941CH         LINE#         324
BL51 BANKED LINKER/LOCATER V6.22                                                      06/07/2020  11:08:23  PAGE 62


  C:9424H         LINE#         325
  C:9424H         LINE#         328
  C:9429H         LINE#         329
  C:9429H         LINE#         330
  C:9440H         LINE#         331
  C:944EH         LINE#         332
  C:944EH         LINE#         333
  C:9450H         LINE#         334
  C:9450H         LINE#         335
  C:945CH         LINE#         336
  C:945DH         LINE#         337
  -------         ENDPROC       _VERIFYFLASHDATE
  -------         PROC          AUTODETECTFLASHTYPE
  -------         DO            
  X:0058H         SYMBOL        i
  -------         ENDDO         
  C:8302H         LINE#         339
  C:8302H         LINE#         340
  C:8302H         LINE#         345
  C:830AH         LINE#         346
  C:830AH         LINE#         347
  C:830FH         LINE#         348
  C:830FH         LINE#         349
  C:8325H         LINE#         350
  C:8337H         LINE#         351
  C:833DH         LINE#         352
  C:8343H         LINE#         353
  C:835AH         LINE#         354
  C:835FH         LINE#         355
  C:835FH         LINE#         356
  C:836AH         LINE#         357
  C:8375H         LINE#         359
  C:837AH         LINE#         360
  C:837AH         LINE#         361
  C:8382H         LINE#         362
  C:8383H         LINE#         363
  C:8383H         LINE#         365
  C:8383H         LINE#         366
  C:8388H         LINE#         367
  C:8388H         LINE#         368
  C:8388H         LINE#         369
  C:8397H         LINE#         370
  C:8397H         LINE#         371
  -------         ENDPROC       AUTODETECTFLASHTYPE
  -------         ENDMOD        FLASH

  -------         MODULE        E2PI2C
  C:0000H         SYMBOL        _ICE_DUMMY_
  -------         ENDMOD        E2PI2C

  -------         MODULE        KEYI2C
  C:0000H         SYMBOL        _ICE_DUMMY_
  C:A1B3H         PUBLIC        KeyI2CStop
  C:9CB6H         PUBLIC        KeyNACKSend
  C:9861H         PUBLIC        KeyACKCheck
  C:9377H         PUBLIC        KeyI2CRead
  C:94A6H         PUBLIC        _KeyI2CWrite
BL51 BANKED LINKER/LOCATER V6.22                                                      06/07/2020  11:08:23  PAGE 63


  C:9DABH         PUBLIC        KeyI2CStart
  C:A3D3H         PUBLIC        _DelayKeyI2c
  C:A3CFH         SYMBOL        L?0028
  -------         PROC          L?0027
  -------         ENDPROC       L?0027
  C:A3CFH         SYMBOL        L?0028
  -------         PROC          _DELAYKEYI2C
  D:0006H         SYMBOL        delayTime
  C:A3D3H         LINE#         44
  C:A3D3H         LINE#         45
  C:A3D3H         LINE#         46
  C:A3D7H         LINE#         47
  C:A3D7H         LINE#         48
  C:A3DCH         LINE#         49
  C:A3DEH         LINE#         50
  -------         ENDPROC       _DELAYKEYI2C
  -------         PROC          KEYI2CSTART
  C:9DABH         LINE#         62
  C:9DABH         LINE#         63
  C:9DABH         LINE#         67
  C:9DB2H         LINE#         69
  C:9DB7H         LINE#         70
  C:9DBCH         LINE#         71
  C:9DBFH         LINE#         72
  C:9DC4H         LINE#         73
  C:9DC7H         LINE#         74
  C:9DCCH         LINE#         75
  -------         ENDPROC       KEYI2CSTART
  -------         PROC          KEYI2CSTOP
  C:A1B3H         LINE#         89
  C:A1B3H         LINE#         90
  C:A1B3H         LINE#         93
  C:A1B8H         LINE#         94
  C:A1BDH         LINE#         95
  C:A1C0H         LINE#         96
  C:A1C5H         LINE#         97
  -------         ENDPROC       KEYI2CSTOP
  -------         PROC          KEYACKCHECK
  -------         DO            
  D:002FH         SYMBOL        loop
  -------         ENDDO         
  C:9861H         LINE#         110
  C:9861H         LINE#         111
  C:9861H         LINE#         112
  C:9864H         LINE#         114
  C:9867H         LINE#         116
  C:986EH         LINE#         117
  C:9873H         LINE#         119
  C:9873H         LINE#         120
  C:987AH         LINE#         121
  C:987FH         LINE#         122
  C:987FH         LINE#         123
  C:9884H         LINE#         124
  C:9886H         LINE#         125
  C:9886H         LINE#         127
  C:9886H         LINE#         128
  C:988BH         LINE#         129
BL51 BANKED LINKER/LOCATER V6.22                                                      06/07/2020  11:08:23  PAGE 64


  C:988BH         LINE#         130
  C:9890H         LINE#         131
  C:9892H         LINE#         132
  C:9892H         LINE#         133
  C:9892H         LINE#         134
  C:9895H         LINE#         135
  C:9896H         LINE#         136
  -------         ENDPROC       KEYACKCHECK
  -------         PROC          KEYNACKSEND
  C:9CB6H         LINE#         148
  C:9CB6H         LINE#         149
  C:9CB6H         LINE#         152
  C:9CBBH         LINE#         153
  C:9CC2H         LINE#         154
  C:9CC7H         LINE#         155
  C:9CCEH         LINE#         156
  C:9CD3H         LINE#         157
  C:9CDAH         LINE#         158
  -------         ENDPROC       KEYNACKSEND
  -------         PROC          _KEYI2CWRITE
  D:002FH         SYMBOL        tempdata
  -------         DO            
  X:0063H         SYMBOL        num
  -------         ENDDO         
  C:94A6H         LINE#         172
  C:94A8H         LINE#         173
  C:94A8H         LINE#         178
  C:94B7H         LINE#         179
  C:94B7H         LINE#         180
  C:94CDH         LINE#         181
  C:94D0H         LINE#         182
  C:94D5H         LINE#         183
  C:94D8H         LINE#         184
  C:94DDH         LINE#         185
  C:94E0H         LINE#         186
  C:94E8H         LINE#         187
  -------         ENDPROC       _KEYI2CWRITE
  -------         PROC          KEYI2CREAD
  -------         DO            
  X:0063H         SYMBOL        temp
  X:0064H         SYMBOL        num
  -------         ENDDO         
  C:9377H         LINE#         200
  C:9377H         LINE#         201
  C:9377H         LINE#         203
  C:937DH         LINE#         206
  C:9380H         LINE#         208
  C:9385H         LINE#         209
  C:9385H         LINE#         211
  C:938AH         LINE#         212
  C:938DH         LINE#         213
  C:9395H         LINE#         215
  C:939AH         LINE#         216
  C:939AH         LINE#         217
  C:93A1H         LINE#         218
  C:93A1H         LINE#         220
  C:93A6H         LINE#         221
BL51 BANKED LINKER/LOCATER V6.22                                                      06/07/2020  11:08:23  PAGE 65


  C:93A6H         LINE#         222
  C:93ADH         LINE#         223
  C:93ADH         LINE#         225
  C:93B2H         LINE#         226
  C:93B5H         LINE#         227
  C:93C1H         LINE#         229
  C:93C6H         LINE#         230
  -------         ENDPROC       KEYI2CREAD
  -------         ENDMOD        KEYI2C

  -------         MODULE        WT5700
  C:0000H         SYMBOL        _ICE_DUMMY_
  D:0080H         PUBLIC        P0
  D:0090H         PUBLIC        P1
  D:00A0H         PUBLIC        P2
  D:00B0H         PUBLIC        P3
  C:8EBCH         PUBLIC        _WriteWT5700
  D:00A8H         PUBLIC        IE
  D:00B8H         PUBLIC        IP
  C:A35BH         PUBLIC        Initial_WT5700
  D:0098H         PUBLIC        SCON
  D:0088H         PUBLIC        TCON
  D:00E8H         PUBLIC        EIE
  D:00F8H         PUBLIC        EIP
  D:00C0H         PUBLIC        SCON1
  D:00C8H         PUBLIC        T2CON
  D:00D8H         PUBLIC        EICON
  C:8398H         PUBLIC        _ReadWT5700
  D:00D0H         PUBLIC        PSW
  -------         PROC          _WRITEWT5700
  D:0055H         SYMBOL        Address
  D:0056H         SYMBOL        Data
  -------         DO            
  X:00ADH         SYMBOL        ucLoop
  -------         ENDDO         
  C:8EBCH         LINE#         31
  C:8EC0H         LINE#         32
  C:8EC0H         LINE#         34
  C:8EC6H         LINE#         36
  C:8ED0H         LINE#         37
  C:8ED0H         LINE#         38
  C:8ED3H         LINE#         39
  C:8EDAH         LINE#         40
  C:8EDFH         LINE#         41
  C:8EE6H         LINE#         42
  C:8EEBH         LINE#         43
  C:8EEBH         LINE#         44
  C:8EEBH         LINE#         45
  C:8EEBH         LINE#         46
  C:8EF0H         LINE#         47
  C:8EF7H         LINE#         48
  C:8EFCH         LINE#         49
  C:8EFCH         LINE#         50
  C:8EFCH         LINE#         51
  C:8EFCH         LINE#         52
  C:8F01H         LINE#         53
  C:8F08H         LINE#         54
BL51 BANKED LINKER/LOCATER V6.22                                                      06/07/2020  11:08:23  PAGE 66


  C:8F0DH         LINE#         55
  C:8F0DH         LINE#         56
  C:8F0DH         LINE#         57
  C:8F0DH         LINE#         58
  C:8F12H         LINE#         59
  C:8F19H         LINE#         60
  C:8F1EH         LINE#         61
  C:8F1EH         LINE#         62
  C:8F1EH         LINE#         63
  C:8F1EH         LINE#         64
  C:8F1EH         LINE#         65
  C:8F1EH         LINE#         66
  -------         ENDPROC       _WRITEWT5700
  -------         PROC          _READWT5700
  D:002EH         SYMBOL        subAddr
  -------         DO            
  X:0061H         SYMBOL        tmpRd
  X:0062H         SYMBOL        ucLoop
  -------         ENDDO         
  C:8398H         LINE#         71
  C:839AH         LINE#         72
  C:839AH         LINE#         75
  C:83A0H         LINE#         77
  C:83AAH         LINE#         78
  C:83AAH         LINE#         79
  C:83ADH         LINE#         80
  C:83B4H         LINE#         81
  C:83B9H         LINE#         82
  C:83C0H         LINE#         83
  C:83C5H         LINE#         84
  C:83C5H         LINE#         85
  C:83C5H         LINE#         86
  C:83C5H         LINE#         87
  C:83CAH         LINE#         88
  C:83D1H         LINE#         89
  C:83D6H         LINE#         90
  C:83D6H         LINE#         91
  C:83D6H         LINE#         92
  C:83D6H         LINE#         93
  C:83DBH         LINE#         94
  C:83E2H         LINE#         95
  C:83E7H         LINE#         96
  C:83E7H         LINE#         97
  C:83E7H         LINE#         98
  C:83E7H         LINE#         99
  C:83EEH         LINE#         100
  C:83F1H         LINE#         101
  C:83F8H         LINE#         102
  C:83FBH         LINE#         103
  C:8402H         LINE#         104
  C:8407H         LINE#         105
  C:840EH         LINE#         106
  C:8413H         LINE#         107
  C:8413H         LINE#         108
  C:8413H         LINE#         109
  C:8413H         LINE#         110
  C:841BH         LINE#         111
BL51 BANKED LINKER/LOCATER V6.22                                                      06/07/2020  11:08:23  PAGE 67


  C:8422H         LINE#         112
  C:8425H         LINE#         113
  C:8425H         LINE#         114
  C:8425H         LINE#         115
  C:8428H         LINE#         116
  C:842DH         LINE#         117
  -------         ENDPROC       _READWT5700
  -------         PROC          INITIAL_WT5700
  C:A35BH         LINE#         120
  C:A35BH         LINE#         121
  C:A35BH         LINE#         122
  C:A362H         LINE#         123
  C:A369H         LINE#         124
  -------         ENDPROC       INITIAL_WT5700
  -------         ENDMOD        WT5700

  -------         MODULE        KT0803LI2C
  C:0000H         SYMBOL        _ICE_DUMMY_
  -------         ENDMOD        KT0803LI2C

  -------         MODULE        KT0803L
  C:0000H         SYMBOL        _ICE_DUMMY_
  D:0080H         PUBLIC        P0
  D:0090H         PUBLIC        P1
  D:00A0H         PUBLIC        P2
  D:00B0H         PUBLIC        P3
  D:00A8H         PUBLIC        IE
  D:00B8H         PUBLIC        IP
  D:0098H         PUBLIC        SCON
  D:0088H         PUBLIC        TCON
  D:00E8H         PUBLIC        EIE
  D:00F8H         PUBLIC        EIP
  D:00C0H         PUBLIC        SCON1
  D:00C8H         PUBLIC        T2CON
  D:00D8H         PUBLIC        EICON
  D:00D0H         PUBLIC        PSW
  -------         ENDMOD        KT0803L

  -------         MODULE        BT_UARTREC
  C:0000H         SYMBOL        _ICE_DUMMY_
  D:0080H         PUBLIC        P0
  D:0090H         PUBLIC        P1
  D:00A0H         PUBLIC        P2
  D:00B0H         PUBLIC        P3
  D:00A8H         PUBLIC        IE
  D:00B8H         PUBLIC        IP
  D:0098H         PUBLIC        SCON
  D:0088H         PUBLIC        TCON
  D:00E8H         PUBLIC        EIE
  D:00F8H         PUBLIC        EIP
  D:00C0H         PUBLIC        SCON1
  D:00C8H         PUBLIC        T2CON
  D:00D8H         PUBLIC        EICON
  D:00D0H         PUBLIC        PSW
  -------         ENDMOD        BT_UARTREC

  -------         MODULE        MAIN
BL51 BANKED LINKER/LOCATER V6.22                                                      06/07/2020  11:08:23  PAGE 68


  C:0000H         SYMBOL        _ICE_DUMMY_
  D:0080H         PUBLIC        P0
  D:0090H         PUBLIC        P1
  D:00A0H         PUBLIC        P2
  D:00B0H         PUBLIC        P3
  D:00A8H         PUBLIC        IE
  D:00B8H         PUBLIC        IP
  C:8700H         PUBLIC        main
  D:0098H         PUBLIC        SCON
  D:0088H         PUBLIC        TCON
  D:00E8H         PUBLIC        EIE
  D:00F8H         PUBLIC        EIP
  D:00C0H         PUBLIC        SCON1
  D:00C8H         PUBLIC        T2CON
  D:00D8H         PUBLIC        EICON
  D:00D0H         PUBLIC        PSW
  -------         PROC          MAIN
  -------         DO            
  D:0027H         SYMBOL        curMsg
  -------         ENDDO         
  C:8700H         LINE#         34
  C:8700H         LINE#         35
  C:8700H         LINE#         36
  C:8703H         LINE#         38
  C:8706H         LINE#         41
  C:870CH         LINE#         42
  C:8711H         LINE#         46
  C:8711H         LINE#         47
  C:8711H         LINE#         50
  C:8714H         LINE#         63
  C:871DH         LINE#         64
  C:8722H         LINE#         65
  C:8722H         LINE#         66
  C:8725H         LINE#         67
  C:8728H         LINE#         68
  C:8728H         LINE#         71
  C:8731H         LINE#         72
  C:8736H         LINE#         73
  C:8736H         LINE#         74
  C:8739H         LINE#         75
  C:873CH         LINE#         76
  C:873CH         LINE#         79
  C:8745H         LINE#         80
  C:874AH         LINE#         81
  C:874AH         LINE#         82
  C:874DH         LINE#         83
  C:8750H         LINE#         84
  C:8750H         LINE#         87
  C:8759H         LINE#         88
  C:875EH         LINE#         89
  C:875EH         LINE#         90
  C:8761H         LINE#         91
  C:8764H         LINE#         92
  C:8764H         LINE#         104
  C:876DH         LINE#         105
  C:8772H         LINE#         106
  C:8772H         LINE#         107
BL51 BANKED LINKER/LOCATER V6.22                                                      06/07/2020  11:08:23  PAGE 69


  C:8775H         LINE#         108
  C:8778H         LINE#         109
  C:8778H         LINE#         121
  C:8781H         LINE#         122
  C:8786H         LINE#         123
  C:8786H         LINE#         124
  C:8789H         LINE#         125
  C:878CH         LINE#         126
  C:878CH         LINE#         127
  -------         ENDPROC       MAIN
  -------         ENDMOD        MAIN

  -------         MODULE        GLOBAL
  C:0000H         SYMBOL        _ICE_DUMMY_
  D:0080H         PUBLIC        P0
  D:0090H         PUBLIC        P1
  D:00A0H         PUBLIC        P2
  D:00B0H         PUBLIC        P3
  B:00A8H.7       PUBLIC        EA
  X:0000H         PUBLIC        g_ucPreChannel
  C:8FEAH         PUBLIC        InitGlobalVariables
  X:0001H         PUBLIC        g_UserInputInfo
  X:0004H         PUBLIC        g_sysSetting
  D:00A8H         PUBLIC        IE
  C:A5FFH         PUBLIC        InitExtDevices
  X:0048H         PUBLIC        g_ucStableTime
  X:0049H         PUBLIC        CurrentKey
  C:A47DH         PUBLIC        ConfigMcuCtrl
  D:00B8H         PUBLIC        IP
  C:A1FCH         PUBLIC        InitSystem
  B:0021H.1       PUBLIC        g_bFactoryFlg
  B:0021H.2       PUBLIC        g_bSignalFlg
  C:9CDFH         PUBLIC        InitSysWorkVariable
  X:004EH         PUBLIC        g_ucBatteryAdcVal
  D:0098H         PUBLIC        SCON
  X:004FH         PUBLIC        g_ucBatteryAdcLev
  B:0021H.3       PUBLIC        g_bBackLightFlg
  D:0088H         PUBLIC        TCON
  X:0050H         PUBLIC        g_ucContBufSecond
  B:0021H.4       PUBLIC        g_bSaveFlag
  X:0051H         PUBLIC        g_ucContNoSignalSecond
  B:0021H.5       PUBLIC        g_bCarReverseFlg
  B:0021H.6       PUBLIC        g_bReleaseAdcKeyFlg
  C:A5FEH         PUBLIC        PrjVersionMsg
  X:0052H         PUBLIC        g_ucSelKeyDevice
  D:00E8H         PUBLIC        EIE
  X:0053H         PUBLIC        PreKey
  B:0021H.7       PUBLIC        g_bLogoFlg
  D:00F8H         PUBLIC        EIP
  D:00C0H         PUBLIC        SCON1
  D:0059H         PUBLIC        g_ucOsdEixt
  D:00C8H         PUBLIC        T2CON
  D:00D8H         PUBLIC        EICON
  D:00D0H         PUBLIC        PSW
  B:0022H.0       PUBLIC        g_bIsTurnOnBLFlg
  -------         PROC          CONFIGMCUCTRL
  C:A47DH         LINE#         52
BL51 BANKED LINKER/LOCATER V6.22                                                      06/07/2020  11:08:23  PAGE 70


  C:A47DH         LINE#         53
  C:A47DH         LINE#         54
  C:A482H         LINE#         55
  C:A488H         LINE#         56
  -------         ENDPROC       CONFIGMCUCTRL
  -------         PROC          INITGLOBALVARIABLES
  C:8FEAH         LINE#         71
  C:8FEAH         LINE#         72
  C:8FEAH         LINE#         75
  C:8FF0H         LINE#         76
  C:8FF4H         LINE#         77
  C:8FFDH         LINE#         78
  C:9002H         LINE#         79
  C:9004H         LINE#         80
  C:9008H         LINE#         81
  C:900CH         LINE#         82
  C:9010H         LINE#         83
  C:9014H         LINE#         84
  C:9016H         LINE#         85
  C:9018H         LINE#         86
  C:901AH         LINE#         87
  C:901CH         LINE#         88
  C:9024H         LINE#         89
  C:9026H         LINE#         90
  C:9029H         LINE#         91
  C:902DH         LINE#         92
  C:9035H         LINE#         93
  C:9037H         LINE#         94
  C:903AH         LINE#         95
  C:903EH         LINE#         96
  C:9041H         LINE#         97
  C:9043H         LINE#         98
  C:9045H         LINE#         99
  -------         ENDPROC       INITGLOBALVARIABLES
  -------         PROC          PRJVERSIONMSG
  C:A5FEH         LINE#         114
  C:A5FEH         LINE#         115
  C:A5FEH         LINE#         123
  -------         ENDPROC       PRJVERSIONMSG
  -------         PROC          INITEXTDEVICES
  C:A5FFH         LINE#         137
  C:A5FFH         LINE#         138
  C:A5FFH         LINE#         179
  -------         ENDPROC       INITEXTDEVICES
  -------         PROC          INITSYSWORKVARIABLE
  C:9CDFH         LINE#         197
  C:9CDFH         LINE#         198
  C:9CDFH         LINE#         201
  C:9CE2H         LINE#         204
  C:9CE5H         LINE#         207
  C:9CEAH         LINE#         208
  C:9CEAH         LINE#         209
  C:9CF2H         LINE#         210
  C:9CF4H         LINE#         212
  C:9CF4H         LINE#         213
  C:9CFCH         LINE#         214
  C:9CFCH         LINE#         215
BL51 BANKED LINKER/LOCATER V6.22                                                      06/07/2020  11:08:23  PAGE 71


  C:9D02H         LINE#         216
  C:9D07H         LINE#         217
  -------         ENDPROC       INITSYSWORKVARIABLE
  -------         PROC          INITSYSTEM
  C:A1FCH         LINE#         232
  C:A1FCH         LINE#         233
  C:A1FCH         LINE#         234
  C:A1FFH         LINE#         236
  C:A202H         LINE#         238
  C:A205H         LINE#         240
  C:A208H         LINE#         242
  C:A20BH         LINE#         244
  C:A20EH         LINE#         246
  C:A211H         LINE#         248
  C:A213H         LINE#         249
  -------         ENDPROC       INITSYSTEM
  -------         ENDMOD        GLOBAL

  -------         MODULE        GETSYSMSG
  C:0000H         SYMBOL        _ICE_DUMMY_
  D:0080H         PUBLIC        P0
  D:0090H         PUBLIC        P1
  C:0E2DH         PUBLIC        POS_GetSignalMsg
  D:00A0H         PUBLIC        P2
  D:00B0H         PUBLIC        P3
  C:0F05H         PUBLIC        POS_GetBatteryAdcMsg
  D:00A8H         PUBLIC        IE
  D:00B8H         PUBLIC        IP
  C:0F28H         PUBLIC        POS_GetMiscMsg
  C:0E9DH         PUBLIC        POS_GetTimeMsg
  D:0098H         PUBLIC        SCON
  D:0088H         PUBLIC        TCON
  C:0F20H         PUBLIC        POS_GetBTMsg
  D:00E8H         PUBLIC        EIE
  C:0EC2H         PUBLIC        POS_GetUserInputMsg
  D:00F8H         PUBLIC        EIP
  C:0E70H         PUBLIC        POS_GetColorSysMsg
  D:00C0H         PUBLIC        SCON1
  D:00C8H         PUBLIC        T2CON
  D:00D8H         PUBLIC        EICON
  C:0070H         PUBLIC        POS_GetUserDefinedMsg
  D:00D0H         PUBLIC        PSW
  -------         PROC          POS_GETUSERINPUTMSG
  B:0022H.3       SYMBOL        timer
  -------         DO            
  X:0058H         SYMBOL        curInputMsg
  -------         ENDDO         
  C:0EC2H         LINE#         51
  C:0EC2H         LINE#         52
  C:0EC2H         LINE#         53
  C:0EC8H         LINE#         55
  C:0ECBH         LINE#         56
  C:0ECBH         LINE#         57
  C:0ECDH         LINE#         68
  C:0ED5H         LINE#         69
  C:0ED8H         LINE#         70
  C:0ED8H         LINE#         71
BL51 BANKED LINKER/LOCATER V6.22                                                      06/07/2020  11:08:23  PAGE 72


  C:0EDBH         LINE#         72
  C:0EDBH         LINE#         74
  C:0EDBH         LINE#         75
  C:0EDDH         LINE#         76
  -------         ENDPROC       POS_GETUSERINPUTMSG
  -------         PROC          POS_GETSIGNALMSG
  B:0022H.3       SYMBOL        timer
  -------         DO            
  X:00AEH         SYMBOL        ucCont
  B:0022H.1       SYMBOL        bSignalFlg
  -------         ENDDO         
  C:0E2DH         LINE#         93
  C:0E2DH         LINE#         94
  C:0E2DH         LINE#         100
  C:0E30H         LINE#         101
  C:0E30H         LINE#         102
  C:0E32H         LINE#         105
  C:0E42H         LINE#         106
  C:0E42H         LINE#         107
  C:0E4BH         LINE#         108
  C:0E4BH         LINE#         109
  C:0E4EH         LINE#         110
  C:0E53H         LINE#         111
  C:0E53H         LINE#         112
  C:0E56H         LINE#         113
  C:0E56H         LINE#         114
  C:0E59H         LINE#         115
  C:0E59H         LINE#         117
  C:0E59H         LINE#         118
  C:0E5CH         LINE#         119
  C:0E5CH         LINE#         120
  C:0E5CH         LINE#         121
  C:0E5CH         LINE#         122
  C:0E5CH         LINE#         124
  C:0E5CH         LINE#         125
  C:0E61H         LINE#         126
  C:0E6DH         LINE#         127
  C:0E6DH         LINE#         128
  C:0E6DH         LINE#         129
  C:0E6FH         LINE#         130
  -------         ENDPROC       POS_GETSIGNALMSG
  -------         PROC          POS_GETCOLORSYSMSG
  B:0022H.3       SYMBOL        timer
  C:0E70H         LINE#         146
  C:0E70H         LINE#         147
  C:0E70H         LINE#         148
  C:0E73H         LINE#         149
  C:0E73H         LINE#         150
  C:0E75H         LINE#         152
  C:0E82H         LINE#         153
  C:0E82H         LINE#         154
  C:0E87H         LINE#         155
  C:0E8AH         LINE#         156
  C:0E8AH         LINE#         157
  C:0E8FH         LINE#         159
  C:0E94H         LINE#         160
  C:0E94H         LINE#         161
BL51 BANKED LINKER/LOCATER V6.22                                                      06/07/2020  11:08:23  PAGE 73


  C:0E97H         LINE#         162
  C:0E97H         LINE#         164
  C:0E97H         LINE#         165
  C:0E9AH         LINE#         166
  C:0E9AH         LINE#         167
  C:0E9AH         LINE#         168
  C:0E9AH         LINE#         169
  C:0E9AH         LINE#         170
  C:0E9CH         LINE#         171
  -------         ENDPROC       POS_GETCOLORSYSMSG
  -------         PROC          POS_GETTIMEMSG
  B:0022H.3       SYMBOL        timer
  C:0E9DH         LINE#         188
  C:0E9DH         LINE#         189
  C:0E9DH         LINE#         192
  C:0EA0H         LINE#         193
  C:0EA0H         LINE#         194
  C:0EA2H         LINE#         196
  C:0EB1H         LINE#         197
  C:0EB1H         LINE#         198
  C:0EBCH         LINE#         199
  C:0EBCH         LINE#         201
  C:0EBFH         LINE#         202
  C:0EBFH         LINE#         203
  C:0EBFH         LINE#         239
  C:0EBFH         LINE#         240
  C:0EC1H         LINE#         241
  -------         ENDPROC       POS_GETTIMEMSG
  -------         PROC          POS_GETBATTERYADCMSG
  B:0022H.5       SYMBOL        timer
  -------         DO            
  X:00A7H         SYMBOL        curBatteryAdcVal
  -------         ENDDO         
  C:0F05H         LINE#         257
  C:0F05H         LINE#         258
  C:0F05H         LINE#         260
  C:0F0DH         LINE#         262
  C:0F10H         LINE#         263
  C:0F10H         LINE#         264
  C:0F12H         LINE#         275
  C:0F12H         LINE#         276
  C:0F14H         LINE#         277
  -------         ENDPROC       POS_GETBATTERYADCMSG
  -------         PROC          POS_GETUSERDEFINEDMSG
  B:0022H.3       SYMBOL        timer
  -------         DO            
  B:0022H.2       SYMBOL        s_bAvCarNoSignalFlg
  -------         ENDDO         
  C:0070H         LINE#         293
  C:0070H         LINE#         294
  C:0070H         LINE#         299
  C:0082H         LINE#         300
  C:0082H         LINE#         303
  C:0084H         LINE#         305
  C:008FH         LINE#         306
  C:008FH         LINE#         307
  C:0096H         LINE#         308
BL51 BANKED LINKER/LOCATER V6.22                                                      06/07/2020  11:08:23  PAGE 74


  C:0096H         LINE#         309
  C:009BH         LINE#         310
  C:00A1H         LINE#         311
  C:00A1H         LINE#         312
  C:00ACH         LINE#         313
  C:00ACH         LINE#         314
  C:00AFH         LINE#         315
  C:00AFH         LINE#         316
  C:00AFH         LINE#         318
  C:00AFH         LINE#         319
  C:00BAH         LINE#         320
  C:00BAH         LINE#         321
  C:00BDH         LINE#         322
  C:00BDH         LINE#         323
  C:00BDH         LINE#         324
  C:00BDH         LINE#         326
  C:00BDH         LINE#         327
  C:00C7H         LINE#         328
  C:00C7H         LINE#         329
  C:00DEH         LINE#         330
  C:00E9H         LINE#         331
  C:00EFH         LINE#         332
  C:00EFH         LINE#         333
  C:00F8H         LINE#         334
  C:00F8H         LINE#         335
  C:00F8H         LINE#         336
  C:00FBH         LINE#         337
  C:00FBH         LINE#         338
  C:00FBH         LINE#         340
  C:00FBH         LINE#         341
  C:0106H         LINE#         342
  C:0106H         LINE#         343
  C:0106H         LINE#         344
  C:0109H         LINE#         345
  C:0109H         LINE#         346
  C:0109H         LINE#         347
  C:0109H         LINE#         349
  C:0109H         LINE#         350
  C:010FH         LINE#         351
  C:010FH         LINE#         352
  C:011AH         LINE#         353
  C:011AH         LINE#         354
  C:011DH         LINE#         355
  C:011DH         LINE#         356
  C:011DH         LINE#         358
  C:011DH         LINE#         359
  C:0128H         LINE#         360
  C:0128H         LINE#         361
  C:012BH         LINE#         362
  C:012BH         LINE#         363
  C:012BH         LINE#         364
  C:012BH         LINE#         365
  C:012BH         LINE#         366
  C:012BH         LINE#         368
  C:012BH         LINE#         369
  C:0148H         LINE#         370
  C:0148H         LINE#         371
BL51 BANKED LINKER/LOCATER V6.22                                                      06/07/2020  11:08:23  PAGE 75


  C:0148H         LINE#         372
  C:014BH         LINE#         373
  C:014BH         LINE#         374
  C:014DH         LINE#         375
  C:0154H         LINE#         376
  C:0154H         LINE#         377
  C:0159H         LINE#         378
  C:015DH         LINE#         382
  C:015DH         LINE#         383
  C:015DH         LINE#         385
  C:015DH         LINE#         389
  C:015FH         LINE#         391
  C:015FH         LINE#         392
  C:0176H         LINE#         393
  C:0181H         LINE#         394
  C:0181H         LINE#         395
  C:0184H         LINE#         397
  C:0184H         LINE#         398
  C:0186H         LINE#         399
  C:019DH         LINE#         400
  C:01A8H         LINE#         401
  C:01AFH         LINE#         402
  C:01AFH         LINE#         403
  C:01B6H         LINE#         404
  C:01B6H         LINE#         405
  C:01BCH         LINE#         406
  C:01C1H         LINE#         407
  C:01C5H         LINE#         408
  C:01C9H         LINE#         411
  C:01CCH         LINE#         415
  C:01CFH         LINE#         416
  C:01D6H         LINE#         417
  C:01D9H         LINE#         422
  C:01DCH         LINE#         424
  C:01DCH         LINE#         425
  C:01DFH         LINE#         426
  C:01DFH         LINE#         427
  C:01DFH         LINE#         429
  C:01DFH         LINE#         430
  C:01F2H         LINE#         431
  C:01FDH         LINE#         432
  C:01FDH         LINE#         433
  C:01FDH         LINE#         434
  C:0200H         LINE#         436
  C:0200H         LINE#         438
  C:0217H         LINE#         439
  C:0222H         LINE#         440
  C:0229H         LINE#         441
  C:0229H         LINE#         442
  C:0230H         LINE#         443
  C:0230H         LINE#         444
  C:0233H         LINE#         445
  C:0233H         LINE#         447
  C:0233H         LINE#         448
  C:0236H         LINE#         449
  C:0236H         LINE#         450
  C:0236H         LINE#         452
BL51 BANKED LINKER/LOCATER V6.22                                                      06/07/2020  11:08:23  PAGE 76


  C:0236H         LINE#         453
  C:0241H         LINE#         454
  C:0241H         LINE#         455
  C:0246H         LINE#         459
  C:0249H         LINE#         460
  C:024CH         LINE#         462
  C:024CH         LINE#         463
  C:024CH         LINE#         464
  C:024EH         LINE#         466
  C:024EH         LINE#         468
  C:0258H         LINE#         470
  C:0258H         LINE#         471
  C:025FH         LINE#         472
  C:025FH         LINE#         473
  C:026BH         LINE#         474
  C:026BH         LINE#         475
  C:026DH         LINE#         476
  C:0270H         LINE#         477
  C:0270H         LINE#         478
  C:0270H         LINE#         480
  C:0270H         LINE#         481
  C:027CH         LINE#         482
  C:027CH         LINE#         483
  C:027EH         LINE#         484
  C:0281H         LINE#         485
  C:0281H         LINE#         486
  C:0281H         LINE#         487
  C:0281H         LINE#         489
  C:0281H         LINE#         491
  C:0281H         LINE#         492
  C:0284H         LINE#         493
  C:0284H         LINE#         495
  C:0284H         LINE#         496
  C:0284H         LINE#         498
  C:0284H         LINE#         500
  C:0284H         LINE#         556
  C:0284H         LINE#         557
  C:0286H         LINE#         558
  -------         ENDPROC       POS_GETUSERDEFINEDMSG
  -------         PROC          POS_GETBTMSG
  B:0022H.6       SYMBOL        timer
  C:0F20H         LINE#         576
  C:0F20H         LINE#         577
  C:0F20H         LINE#         578
  C:0F23H         LINE#         579
  C:0F23H         LINE#         580
  C:0F25H         LINE#         603
  C:0F25H         LINE#         604
  C:0F27H         LINE#         605
  -------         ENDPROC       POS_GETBTMSG
  -------         PROC          POS_GETMISCMSG
  B:0022H.3       SYMBOL        timer
  C:0F28H         LINE#         622
  C:0F28H         LINE#         623
  C:0F28H         LINE#         624
  C:0F2BH         LINE#         625
  C:0F2BH         LINE#         626
BL51 BANKED LINKER/LOCATER V6.22                                                      06/07/2020  11:08:23  PAGE 77


  C:0F2DH         LINE#         648
  C:0F2DH         LINE#         649
  C:0F2FH         LINE#         650
  -------         ENDPROC       POS_GETMISCMSG
  -------         ENDMOD        GETSYSMSG

  -------         MODULE        DELAY
  C:0000H         SYMBOL        _ICE_DUMMY_
  C:A214H         PUBLIC        _DelayMs
  C:A43AH         PUBLIC        _Delay
  -------         PROC          _DELAY
  D:0006H         SYMBOL        cont_time
  C:A43AH         LINE#         20
  C:A43AH         LINE#         21
  C:A43AH         LINE#         22
  C:A444H         LINE#         23
  C:A444H         LINE#         24
  C:A445H         LINE#         25
  C:A447H         LINE#         26
  -------         ENDPROC       _DELAY
  -------         PROC          _DELAYMS
  D:0002H         SYMBOL        contTime
  C:A214H         LINE#         28
  C:A218H         LINE#         29
  C:A218H         LINE#         30
  C:A222H         LINE#         31
  C:A222H         LINE#         32
  C:A229H         LINE#         33
  C:A22BH         LINE#         34
  -------         ENDPROC       _DELAYMS
  -------         ENDMOD        DELAY

  -------         MODULE        INTERRUPT
  C:0000H         SYMBOL        _ICE_DUMMY_
  D:0080H         PUBLIC        P0
  D:0090H         PUBLIC        P1
  D:00A0H         PUBLIC        P2
  D:00B0H         PUBLIC        P3
  X:00A9H         PUBLIC        g_ucPreColorSys
  D:00A8H         PUBLIC        IE
  C:0F3DH         PUBLIC        POS_IrqServerRec
  D:00B8H         PUBLIC        IP
  B:0020H.0       PUBLIC        g_bGetUserDefFlg
  B:0020H.1       PUBLIC        g_bGetUserInputFlg
  B:0020H.2       PUBLIC        g_bGetColorSysFlg
  D:0091H         PUBLIC        EXIF
  C:0F15H         PUBLIC        POS_IrqServerTimer0
  B:0020H.3       PUBLIC        g_bVideoChSelOk
  C:0966H         PUBLIC        POS_IrqServerTimer1
  D:0098H         PUBLIC        SCON
  D:0088H         PUBLIC        TCON
  B:0020H.4       PUBLIC        g_bGetSignalFlg
  D:008CH         PUBLIC        TH0
  D:008DH         PUBLIC        TH1
  D:008AH         PUBLIC        TL0
  B:0020H.5       PUBLIC        g_bGetBatteryAdcFlg
  D:008BH         PUBLIC        TL1
BL51 BANKED LINKER/LOCATER V6.22                                                      06/07/2020  11:08:23  PAGE 78


  D:00E8H         PUBLIC        EIE
  B:0088H.4       PUBLIC        TR0
  B:0088H.6       PUBLIC        TR1
  D:00F8H         PUBLIC        EIP
  C:0F3CH         PUBLIC        POS_IrqServerExt0
  C:0EDEH         PUBLIC        POS_IrqServerExt2
  C:0F30H         PUBLIC        POS_IrqServerExt3
  C:0F34H         PUBLIC        POS_IrqServerExt4
  X:00AAH         PUBLIC        g_ucColorSys
  C:0F38H         PUBLIC        POS_IrqServerExt5
  D:00C0H         PUBLIC        SCON1
  D:00C8H         PUBLIC        T2CON
  D:00D8H         PUBLIC        EICON
  B:0020H.6       PUBLIC        g_bGetMiscFlg
  B:0020H.7       PUBLIC        g_bGetTimeFlg
  D:00D0H         PUBLIC        PSW
  B:0021H.0       PUBLIC        g_bGetBTFlg
  -------         PROC          POS_IRQSERVEREXT0
  C:0F3CH         LINE#         33
  C:0F3CH         LINE#         43
  -------         ENDPROC       POS_IRQSERVEREXT0
  -------         PROC          POS_IRQSERVERREC
  C:0F3DH         LINE#         46
  C:0F3DH         LINE#         59
  -------         ENDPROC       POS_IRQSERVERREC
  -------         PROC          POS_IRQSERVEREXT2
  C:0EDEH         LINE#         61
  C:0EE4H         LINE#         64
  C:0EE7H         LINE#         67
  C:0EECH         LINE#         68
  C:0EEEH         LINE#         69
  -------         ENDPROC       POS_IRQSERVEREXT2
  -------         PROC          POS_IRQSERVEREXT3
  C:0F30H         LINE#         73
  C:0F30H         LINE#         76
  C:0F33H         LINE#         77
  -------         ENDPROC       POS_IRQSERVEREXT3
  -------         PROC          POS_IRQSERVEREXT4
  C:0F34H         LINE#         80
  C:0F34H         LINE#         83
  C:0F37H         LINE#         84
  -------         ENDPROC       POS_IRQSERVEREXT4
  -------         PROC          POS_IRQSERVEREXT5
  C:0F38H         LINE#         88
  C:0F38H         LINE#         92
  C:0F3BH         LINE#         93
  -------         ENDPROC       POS_IRQSERVEREXT5
  -------         PROC          POS_IRQSERVERTIMER0
  C:0F15H         LINE#         96
  C:0F15H         LINE#         98
  C:0F17H         LINE#         99
  C:0F1DH         LINE#         100
  C:0F1FH         LINE#         101
  -------         ENDPROC       POS_IRQSERVERTIMER0
  -------         PROC          POS_IRQSERVERTIMER1
  -------         DO            
  D:0058H         SYMBOL        s_ucSysTimer
BL51 BANKED LINKER/LOCATER V6.22                                                      06/07/2020  11:08:23  PAGE 79


  -------         DO            
  D:0057H         SYMBOL        s_ucPreSys
  D:0023H         SYMBOL        ucCurSys
  -------         ENDDO         
  -------         ENDDO         
  C:0966H         LINE#         117
  C:0983H         LINE#         121
  C:0985H         LINE#         122
  C:098BH         LINE#         123
  C:098DH         LINE#         125
  C:098FH         LINE#         128
  C:0994H         LINE#         130
  C:099EH         LINE#         131
  C:099EH         LINE#         132
  C:09A2H         LINE#         133
  C:09A2H         LINE#         135
  C:09A7H         LINE#         136
  C:09A7H         LINE#         137
  C:09A9H         LINE#         138
  C:09ABH         LINE#         139
  C:09ADH         LINE#         146
  C:09ADH         LINE#         148
  C:09B3H         LINE#         149
  C:09B3H         LINE#         150
  C:09B5H         LINE#         151
  C:09B7H         LINE#         152
  C:09B9H         LINE#         153
  C:09B9H         LINE#         155
  C:09C3H         LINE#         156
  C:09C3H         LINE#         157
  C:09C5H         LINE#         158
  C:09C5H         LINE#         160
  C:09CFH         LINE#         161
  C:09CFH         LINE#         164
  C:09D1H         LINE#         167
  C:09D1H         LINE#         170
  C:09D4H         LINE#         171
  C:09D4H         LINE#         177
  C:09E5H         LINE#         178
  C:09E5H         LINE#         179
  C:09F1H         LINE#         180
  C:09F5H         LINE#         181
  C:09F5H         LINE#         182
  C:09F8H         LINE#         183
  C:09F8H         LINE#         184
  C:09FAH         LINE#         186
  C:09FAH         LINE#         187
  C:0A03H         LINE#         188
  C:0A03H         LINE#         189
  C:0A09H         LINE#         190
  C:0A09H         LINE#         191
  C:0A11H         LINE#         192
  C:0A11H         LINE#         193
  C:0A11H         LINE#         194
  C:0A14H         LINE#         195
  C:0A16H         LINE#         197
  C:0A16H         LINE#         201
BL51 BANKED LINKER/LOCATER V6.22                                                      06/07/2020  11:08:23  PAGE 80


  C:0A16H         LINE#         202
  C:0A19H         LINE#         203
  C:0A19H         LINE#         204
  C:0A19H         LINE#         205
  C:0A1FH         LINE#         206
  C:0A1FH         LINE#         207
  C:0A1FH         LINE#         208
  C:0A1FH         LINE#         209
  C:0A21H         LINE#         211
  C:0A21H         LINE#         212
  C:0A26H         LINE#         213
  C:0A26H         LINE#         214
  C:0A26H         LINE#         237
  -------         ENDPROC       POS_IRQSERVERTIMER1
  -------         ENDMOD        INTERRUPT

  -------         MODULE        EVENTHANDLE
  C:0000H         SYMBOL        _ICE_DUMMY_
  D:0080H         PUBLIC        P0
  D:0090H         PUBLIC        P1
  D:00A0H         PUBLIC        P2
  D:00B0H         PUBLIC        P3
  C:A2D4H         PUBLIC        _MiscMsgHandle
  C:9E42H         PUBLIC        _TimeMsgHandle
  D:00A8H         PUBLIC        IE
  C:A5E5H         PUBLIC        _BTMsgHandle
  D:00B8H         PUBLIC        IP
  C:A4F3H         PUBLIC        _OsdMsgHandle
  D:0098H         PUBLIC        SCON
  D:0088H         PUBLIC        TCON
  C:A489H         PUBLIC        _ColorSysMsgHandle
  C:6E9CH         PUBLIC        _UserDefinedMsgHandle
  D:00E8H         PUBLIC        EIE
  C:A3DFH         PUBLIC        _SignalMsgHandle
  D:00F8H         PUBLIC        EIP
  C:A526H         PUBLIC        _BatteryAdcMsgHandle
  D:00C0H         PUBLIC        SCON1
  D:00C8H         PUBLIC        T2CON
  D:00D8H         PUBLIC        EICON
  D:00D0H         PUBLIC        PSW
  -------         PROC          _OSDMSGHANDLE
  D:0006H         SYMBOL        curMsg
  -------         DO            
  D:0007H         SYMBOL        ucComd
  -------         ENDDO         
  C:A4F3H         LINE#         50
  C:A4F5H         LINE#         51
  C:A4F5H         LINE#         52
  C:A4F6H         LINE#         54
  C:A4FBH         LINE#         70
  -------         ENDPROC       _OSDMSGHANDLE
  -------         PROC          _SIGNALMSGHANDLE
  D:0007H         SYMBOL        curMsg
  C:A3DFH         LINE#         87
  C:A3DFH         LINE#         88
  C:A3DFH         LINE#         89
  C:A3E2H         LINE#         90
BL51 BANKED LINKER/LOCATER V6.22                                                      06/07/2020  11:08:23  PAGE 81


  C:A3E2H         LINE#         117
  C:A3E9H         LINE#         118
  C:A3E9H         LINE#         119
  C:A3EEH         LINE#         120
  C:A3EEH         LINE#         121
  C:A3EEH         LINE#         124
  C:A3EEH         LINE#         125
  C:A3EEH         LINE#         148
  C:A3EEH         LINE#         149
  C:A3EEH         LINE#         158
  C:A3EEH         LINE#         160
  C:A3EEH         LINE#         161
  -------         ENDPROC       _SIGNALMSGHANDLE
  -------         PROC          _COLORSYSMSGHANDLE
  D:0007H         SYMBOL        curMsg
  C:A489H         LINE#         177
  C:A489H         LINE#         178
  C:A489H         LINE#         179
  C:A48CH         LINE#         180
  C:A48CH         LINE#         181
  C:A494H         LINE#         182
  C:A494H         LINE#         183
  -------         ENDPROC       _COLORSYSMSGHANDLE
  -------         PROC          _TIMEMSGHANDLE
  D:0028H         SYMBOL        curMsg
  C:9E42H         LINE#         199
  C:9E44H         LINE#         200
  C:9E44H         LINE#         202
  C:9E49H         LINE#         203
  C:9E49H         LINE#         205
  C:9E4EH         LINE#         206
  C:9E4EH         LINE#         208
  C:9E53H         LINE#         209
  C:9E53H         LINE#         211
  C:9E58H         LINE#         212
  C:9E58H         LINE#         214
  C:9E5DH         LINE#         215
  C:9E5DH         LINE#         218
  C:9E60H         LINE#         219
  C:9E63H         LINE#         221
  C:9E63H         LINE#         222
  -------         ENDPROC       _TIMEMSGHANDLE
  -------         PROC          _BATTERYADCMSGHANDLE
  D:0007H         SYMBOL        curMsg
  C:A526H         LINE#         239
  C:A526H         LINE#         240
  C:A526H         LINE#         241
  C:A529H         LINE#         242
  C:A529H         LINE#         244
  C:A52EH         LINE#         245
  C:A52EH         LINE#         246
  -------         ENDPROC       _BATTERYADCMSGHANDLE
  -------         PROC          _USERDEFINEDMSGHANDLE
  D:0028H         SYMBOL        curMsg
  C:6E9CH         LINE#         263
  C:6E9EH         LINE#         264
  C:6E9EH         LINE#         266
BL51 BANKED LINKER/LOCATER V6.22                                                      06/07/2020  11:08:23  PAGE 82


  C:6EA3H         LINE#         267
  C:6EA3H         LINE#         269
  C:6EA9H         LINE#         270
  C:6EAEH         LINE#         271
  C:6EB6H         LINE#         272
  C:6EBCH         LINE#         273
  C:6EC1H         LINE#         274
  C:6EC1H         LINE#         277
  C:6EC7H         LINE#         278
  C:6EC7H         LINE#         280
  C:6ECCH         LINE#         281
  C:6ED1H         LINE#         283
  C:6ED9H         LINE#         284
  C:6EDBH         LINE#         285
  C:6EE0H         LINE#         286
  C:6EE2H         LINE#         287
  C:6EECH         LINE#         288
  C:6EECH         LINE#         289
  C:6EF1H         LINE#         290
  C:6EF1H         LINE#         291
  C:6EF1H         LINE#         294
  C:6EF7H         LINE#         295
  C:6EF7H         LINE#         297
  C:6EFDH         LINE#         298
  C:6F01H         LINE#         299
  C:6F06H         LINE#         300
  C:6F08H         LINE#         301
  C:6F0DH         LINE#         302
  C:6F0FH         LINE#         303
  C:6F3CH         LINE#         304
  C:6F3CH         LINE#         307
  C:6F41H         LINE#         308
  C:6F41H         LINE#         310
  C:6F47H         LINE#         311
  C:6F4BH         LINE#         312
  C:6F50H         LINE#         313
  C:6F52H         LINE#         314
  C:6F57H         LINE#         315
  C:6F59H         LINE#         316
  C:6F59H         LINE#         319
  C:6F5EH         LINE#         320
  C:6F5EH         LINE#         322
  C:6F64H         LINE#         323
  C:6F68H         LINE#         324
  C:6F6DH         LINE#         325
  C:6F6FH         LINE#         326
  C:6F74H         LINE#         327
  C:6F76H         LINE#         328
  C:6F79H         LINE#         329
  C:6F79H         LINE#         330
  -------         ENDPROC       _USERDEFINEDMSGHANDLE
  -------         PROC          _BTMSGHANDLE
  D:005AH         SYMBOL        curMsg
  C:A5E5H         LINE#         348
  C:A5E7H         LINE#         349
  C:A5E7H         LINE#         379
  -------         ENDPROC       _BTMSGHANDLE
BL51 BANKED LINKER/LOCATER V6.22                                                      06/07/2020  11:08:23  PAGE 83


  -------         PROC          _MISCMSGHANDLE
  D:0028H         SYMBOL        curMsg
  C:A2D4H         LINE#         397
  C:A2D6H         LINE#         398
  C:A2D6H         LINE#         399
  C:A2DBH         LINE#         400
  C:A2DBH         LINE#         402
  C:A2E0H         LINE#         403
  C:A2E0H         LINE#         405
  C:A2E5H         LINE#         406
  C:A2E5H         LINE#         408
  C:A2EAH         LINE#         409
  C:A2EAH         LINE#         410
  -------         ENDPROC       _MISCMSGHANDLE
  -------         ENDMOD        EVENTHANDLE

  -------         MODULE        GETUSERINPUTMSG
  C:0000H         SYMBOL        _ICE_DUMMY_
  C:9BE9H         PUBLIC        SysI2cKeyCmdMap
  C:0BB1H         PUBLIC        POS_TransferI2CKeyCmd
  C:9BE0H         PUBLIC        SysAdcKeyCmdMap
  C:9BF8H         PUBLIC        SysKeyMsgMap
  C:9C02H         SYMBOL        _?ix1000
  C:9C07H         SYMBOL        _?ix1001
  C:0C5AH         PUBLIC        POS_GetKeyPadMsg
  C:0287H         PUBLIC        POS_TransferAdcKeyCmd
  C:0DCEH         PUBLIC        _POS_TransferKeyMsg
  -------         PROC          POS_GETKEYPADMSG
  -------         DO            
  D:0028H         SYMBOL        curKeyCmd
  D:0029H         SYMBOL        curKey
  D:0007H         SYMBOL        curKeyMsg
  -------         ENDDO         
  C:0C5AH         LINE#         100
  C:0C5AH         LINE#         101
  C:0C5AH         LINE#         102
  C:0C5DH         LINE#         103
  C:0C70H         LINE#         107
  C:0C7AH         LINE#         108
  C:0C7AH         LINE#         109
  C:0C7AH         LINE#         111
  C:0C8AH         LINE#         114
  C:0C90H         LINE#         115
  C:0C90H         LINE#         116
  C:0C92H         LINE#         117
  C:0CAAH         LINE#         118
  C:0CACH         LINE#         120
  C:0CACH         LINE#         121
  C:0CAEH         LINE#         122
  C:0CAEH         LINE#         123
  C:0CB0H         LINE#         125
  C:0CB0H         LINE#         128
  C:0CC0H         LINE#         131
  C:0CC6H         LINE#         132
  C:0CC6H         LINE#         133
  C:0CDEH         LINE#         134
  C:0CDEH         LINE#         135
BL51 BANKED LINKER/LOCATER V6.22                                                      06/07/2020  11:08:23  PAGE 84


  C:0CDEH         LINE#         137
  C:0CDEH         LINE#         138
  C:0CDEH         LINE#         139
  C:0CDEH         LINE#         142
  C:0CE3H         LINE#         143
  C:0CE3H         LINE#         144
  C:0CE9H         LINE#         145
  C:0CFBH         LINE#         146
  C:0CFBH         LINE#         148
  C:0CFDH         LINE#         149
  C:0CFDH         LINE#         150
  -------         ENDPROC       POS_GETKEYPADMSG
  -------         PROC          _POS_TRANSFERKEYMSG
  D:002EH         SYMBOL        KeyCmd
  -------         DO            
  X:0059H         SYMBOL        i
  X:005AH         SYMBOL        Key
  -------         ENDDO         
  C:0DCEH         LINE#         164
  C:0DD0H         LINE#         165
  C:0DD0H         LINE#         167
  C:0DE3H         LINE#         169
  C:0DF2H         LINE#         170
  C:0DF2H         LINE#         171
  C:0E04H         LINE#         172
  C:0E04H         LINE#         173
  C:0E04H         LINE#         174
  C:0E04H         LINE#         176
  C:0E09H         LINE#         177
  C:0E09H         LINE#         178
  C:0E1EH         LINE#         179
  C:0E1EH         LINE#         180
  C:0E26H         LINE#         186
  C:0E2CH         LINE#         187
  -------         ENDPROC       _POS_TRANSFERKEYMSG
  -------         PROC          POS_TRANSFERADCKEYCMD
  D:002EH         SYMBOL        Key
  -------         DO            
  X:0059H         SYMBOL        i
  X:005AH         SYMBOL        j
  X:005BH         SYMBOL        KeyCmd
  -------         ENDDO         
  C:0287H         LINE#         201
  C:0287H         LINE#         202
  C:0287H         LINE#         204
  C:028DH         LINE#         206
  C:029FH         LINE#         207
  C:029FH         LINE#         208
  C:02BDH         LINE#         209
  C:02BDH         LINE#         210
  C:02BDH         LINE#         211
  C:02BDH         LINE#         213
  C:02D0H         LINE#         214
  C:02D0H         LINE#         216
  C:02D9H         LINE#         217
  C:02D9H         LINE#         218
  C:02EAH         LINE#         219
BL51 BANKED LINKER/LOCATER V6.22                                                      06/07/2020  11:08:23  PAGE 85


  C:02EAH         LINE#         220
  C:0306H         LINE#         221
  C:0306H         LINE#         222
  C:0306H         LINE#         223
  C:0306H         LINE#         224
  C:0310H         LINE#         225
  C:0310H         LINE#         226
  C:031BH         LINE#         227
  C:0332H         LINE#         229
  C:0337H         LINE#         230
  C:0337H         LINE#         231
  C:033EH         LINE#         232
  C:033EH         LINE#         233
  C:0344H         LINE#         234
  C:0344H         LINE#         235
  C:034BH         LINE#         236
  C:034EH         LINE#         237
  C:0351H         LINE#         238
  C:035AH         LINE#         239
  C:035AH         LINE#         240
  C:0361H         LINE#         242
  C:0366H         LINE#         243
  C:0366H         LINE#         244
  C:0369H         LINE#         245
  C:036CH         LINE#         246
  C:036FH         LINE#         247
  C:0378H         LINE#         248
  C:0378H         LINE#         249
  C:037EH         LINE#         250
  C:037EH         LINE#         251
  C:037EH         LINE#         257
  C:0381H         LINE#         258
  C:0381H         LINE#         259
  C:038AH         LINE#         260
  C:038AH         LINE#         262
  C:038AH         LINE#         263
  C:03B2H         LINE#         264
  C:03B2H         LINE#         265
  C:03BDH         LINE#         266
  C:03D4H         LINE#         268
  C:03D9H         LINE#         269
  C:03D9H         LINE#         270
  C:03E0H         LINE#         271
  C:03E0H         LINE#         272
  C:03E6H         LINE#         273
  C:03E6H         LINE#         274
  C:03EDH         LINE#         275
  C:03F0H         LINE#         276
  C:03F2H         LINE#         277
  C:03F8H         LINE#         278
  C:03F8H         LINE#         279
  C:03FFH         LINE#         281
  C:0404H         LINE#         282
  C:0404H         LINE#         283
  C:0407H         LINE#         284
  C:040AH         LINE#         285
  C:040CH         LINE#         286
BL51 BANKED LINKER/LOCATER V6.22                                                      06/07/2020  11:08:23  PAGE 86


  C:0411H         LINE#         287
  C:0411H         LINE#         288
  C:0417H         LINE#         289
  C:0417H         LINE#         290
  C:0417H         LINE#         295
  C:0419H         LINE#         296
  C:0419H         LINE#         297
  C:0419H         LINE#         298
  C:0419H         LINE#         299
  C:0422H         LINE#         300
  C:0427H         LINE#         301
  -------         ENDPROC       POS_TRANSFERADCKEYCMD
  -------         PROC          POS_TRANSFERI2CKEYCMD
  D:002EH         SYMBOL        Key
  -------         DO            
  X:0059H         SYMBOL        i
  X:005AH         SYMBOL        KeyCmd
  -------         ENDDO         
  C:0BB1H         LINE#         314
  C:0BB1H         LINE#         315
  C:0BB1H         LINE#         317
  C:0BB7H         LINE#         319
  C:0BC9H         LINE#         320
  C:0BC9H         LINE#         321
  C:0BE5H         LINE#         322
  C:0BE5H         LINE#         323
  C:0BE5H         LINE#         324
  C:0BE5H         LINE#         326
  C:0BEFH         LINE#         327
  C:0BEFH         LINE#         328
  C:0C06H         LINE#         329
  C:0C0BH         LINE#         330
  C:0C0BH         LINE#         331
  C:0C12H         LINE#         332
  C:0C12H         LINE#         333
  C:0C18H         LINE#         334
  C:0C18H         LINE#         335
  C:0C1FH         LINE#         336
  C:0C22H         LINE#         337
  C:0C24H         LINE#         338
  C:0C2AH         LINE#         339
  C:0C2AH         LINE#         340
  C:0C31H         LINE#         341
  C:0C36H         LINE#         342
  C:0C36H         LINE#         343
  C:0C39H         LINE#         344
  C:0C3CH         LINE#         345
  C:0C3EH         LINE#         346
  C:0C43H         LINE#         347
  C:0C43H         LINE#         348
  C:0C49H         LINE#         349
  C:0C49H         LINE#         350
  C:0C49H         LINE#         355
  C:0C4BH         LINE#         356
  C:0C4BH         LINE#         357
  C:0C54H         LINE#         358
  C:0C59H         LINE#         359
BL51 BANKED LINKER/LOCATER V6.22                                                      06/07/2020  11:08:23  PAGE 87


  -------         ENDPROC       POS_TRANSFERI2CKEYCMD
  -------         ENDMOD        GETUSERINPUTMSG

  -------         MODULE        ADCKEYPAD
  C:0000H         SYMBOL        _ICE_DUMMY_
  C:0B01H         PUBLIC        _POS_FilterAdcKeyVal
  C:06A9H         PUBLIC        POS_GetAdcKeyValue
  C:A4FEH         SYMBOL        _?ix1000
  C:A504H         SYMBOL        _?ix1001
  C:0D69H         PUBLIC        _POS_ReleaseAdcKey
  C:05A6H         PUBLIC        _POS_GetBestAdcKeyVal
  -------         PROC          _POS_GETBESTADCKEYVAL
  D:0032H         SYMBOL        AdcBuf
  D:0035H         SYMBOL        Length
  -------         DO            
  X:0064H         SYMBOL        i
  X:0065H         SYMBOL        j
  X:0066H         SYMBOL        index
  X:0067H         SYMBOL        s_offset1
  X:0069H         SYMBOL        s_offset2
  -------         ENDDO         
  C:05A6H         LINE#         39
  C:05AEH         LINE#         40
  C:05AEH         LINE#         42
  C:05B9H         LINE#         44
  C:05C7H         LINE#         45
  C:05C7H         LINE#         46
  C:05F2H         LINE#         47
  C:05FAH         LINE#         48
  C:05FFH         LINE#         49
  C:0610H         LINE#         50
  C:0610H         LINE#         51
  C:061DH         LINE#         52
  C:061DH         LINE#         53
  C:0655H         LINE#         54
  C:065DH         LINE#         55
  C:0672H         LINE#         56
  C:0672H         LINE#         57
  C:0677H         LINE#         58
  C:067FH         LINE#         59
  C:067FH         LINE#         60
  C:0686H         LINE#         61
  C:068FH         LINE#         62
  C:06A8H         LINE#         63
  -------         ENDPROC       _POS_GETBESTADCKEYVAL
  -------         PROC          _POS_FILTERADCKEYVAL
  D:002EH         SYMBOL        AdcValueBuf
  D:0031H         SYMBOL        len
  -------         DO            
  X:0060H         SYMBOL        i
  X:0061H         SYMBOL        j
  X:0062H         SYMBOL        CurrentKey
  B:0022H.4       SYMBOL        Keyok
  -------         ENDDO         
  C:0B01H         LINE#         76
  C:0B09H         LINE#         77
  C:0B09H         LINE#         80
BL51 BANKED LINKER/LOCATER V6.22                                                      06/07/2020  11:08:23  PAGE 88


  C:0B11H         LINE#         81
  C:0B13H         LINE#         83
  C:0B25H         LINE#         84
  C:0B25H         LINE#         85
  C:0B33H         LINE#         86
  C:0B33H         LINE#         87
  C:0B68H         LINE#         88
  C:0B68H         LINE#         89
  C:0B6AH         LINE#         90
  C:0B6CH         LINE#         91
  C:0B6CH         LINE#         92
  C:0B74H         LINE#         93
  C:0B77H         LINE#         94
  C:0B77H         LINE#         95
  C:0B77H         LINE#         96
  C:0B77H         LINE#         97
  C:0B7FH         LINE#         99
  C:0B82H         LINE#         100
  C:0B82H         LINE#         101
  C:0B95H         LINE#         102
  C:0B9FH         LINE#         103
  C:0BA1H         LINE#         105
  C:0BA1H         LINE#         106
  C:0BA8H         LINE#         107
  C:0BA8H         LINE#         108
  C:0BB0H         LINE#         110
  -------         ENDPROC       _POS_FILTERADCKEYVAL
  -------         PROC          _POS_RELEASEADCKEY
  D:002EH         SYMBOL        AdcKeyVal
  -------         DO            
  X:0060H         SYMBOL        tmpKey
  -------         ENDDO         
  C:0D69H         LINE#         124
  C:0D6DH         LINE#         125
  C:0D6DH         LINE#         126
  C:0D80H         LINE#         128
  C:0D8FH         LINE#         129
  C:0D8FH         LINE#         131
  C:0D97H         LINE#         133
  C:0DA6H         LINE#         134
  C:0DA6H         LINE#         135
  C:0DAEH         LINE#         136
  C:0DB6H         LINE#         137
  C:0DBAH         LINE#         138
  C:0DBAH         LINE#         139
  C:0DBFH         LINE#         140
  C:0DC7H         LINE#         141
  C:0DC7H         LINE#         142
  C:0DCDH         LINE#         143
  -------         ENDPROC       _POS_RELEASEADCKEY
  -------         PROC          POS_GETADCKEYVALUE
  -------         DO            
  C:A503H         SYMBOL        ChannelBuf
  X:0082H         SYMBOL        AdcKeyValBuf
  X:008AH         SYMBOL        AdcChannel
  X:008BH         SYMBOL        Index
  X:0059H         SYMBOL        tmpKey
BL51 BANKED LINKER/LOCATER V6.22                                                      06/07/2020  11:08:23  PAGE 89


  X:005EH         SYMBOL        CurrentAdcVal
  -------         ENDDO         
  C:06A9H         LINE#         159
  C:06A9H         LINE#         160
  C:06A9H         LINE#         165
  C:06BCH         LINE#         169
  C:06EAH         LINE#         170
  C:06F0H         LINE#         172
  C:06F9H         LINE#         173
  C:06F9H         LINE#         174
  C:06FBH         LINE#         175
  C:0710H         LINE#         176
  C:0727H         LINE#         178
  C:072BH         LINE#         179
  C:072BH         LINE#         185
  C:073BH         LINE#         191
  C:073BH         LINE#         192
  C:0741H         LINE#         194
  C:0746H         LINE#         195
  C:0746H         LINE#         196
  C:0748H         LINE#         197
  C:0748H         LINE#         198
  C:074FH         LINE#         199
  C:074FH         LINE#         201
  C:074FH         LINE#         202
  C:0761H         LINE#         203
  C:0769H         LINE#         205
  C:0772H         LINE#         206
  C:0772H         LINE#         207
  C:0775H         LINE#         208
  C:0775H         LINE#         210
  C:0784H         LINE#         211
  C:078CH         LINE#         212
  C:0790H         LINE#         213
  C:0792H         LINE#         214
  C:0792H         LINE#         215
  C:0792H         LINE#         216
  C:0792H         LINE#         217
  C:0798H         LINE#         218
  -------         ENDPROC       POS_GETADCKEYVALUE
  -------         ENDMOD        ADCKEYPAD

  -------         MODULE        IR
  C:0000H         SYMBOL        _ICE_DUMMY_
  D:0080H         PUBLIC        P0
  D:0090H         PUBLIC        P1
  D:00A0H         PUBLIC        P2
  D:00B0H         PUBLIC        P3
  D:00A8H         PUBLIC        IE
  D:00B8H         PUBLIC        IP
  X:009AH         PUBLIC        g_uwCustomCode
  D:0098H         PUBLIC        SCON
  D:0088H         PUBLIC        TCON
  D:00E8H         PUBLIC        EIE
  D:00F8H         PUBLIC        EIP
  X:009CH         PUBLIC        g_ucRemoteKeyVal
  D:00C0H         PUBLIC        SCON1
BL51 BANKED LINKER/LOCATER V6.22                                                      06/07/2020  11:08:23  PAGE 90


  D:00C8H         PUBLIC        T2CON
  D:00D8H         PUBLIC        EICON
  D:00D0H         PUBLIC        PSW
  -------         ENDMOD        IR

  -------         MODULE        TOUCHKEYPAD
  C:0000H         SYMBOL        _ICE_DUMMY_
  C:0006H         SYMBOL        _?ix1000
  C:0A41H         PUBLIC        POS_GetI2CKeyValue
  -------         PROC          POS_GETI2CKEYVALUE
  -------         DO            
  X:0059H         SYMBOL        CurrentKeyVal
  X:005BH         SYMBOL        tmpKeyVal
  X:005CH         SYMBOL        tmpKey
  -------         ENDDO         
  C:0A41H         LINE#         36
  C:0A41H         LINE#         37
  C:0A41H         LINE#         40
  C:0A54H         LINE#         42
  C:0A60H         LINE#         43
  C:0A67H         LINE#         44
  C:0A7EH         LINE#         46
  C:0A81H         LINE#         47
  C:0A81H         LINE#         48
  C:0A89H         LINE#         49
  C:0A98H         LINE#         50
  C:0A98H         LINE#         52
  C:0AA0H         LINE#         53
  C:0AA8H         LINE#         54
  C:0AACH         LINE#         55
  C:0AACH         LINE#         56
  C:0AB1H         LINE#         57
  C:0AB9H         LINE#         59
  C:0ABBH         LINE#         61
  C:0ABBH         LINE#         63
  C:0ACBH         LINE#         64
  C:0AD3H         LINE#         66
  C:0ADCH         LINE#         67
  C:0ADCH         LINE#         68
  C:0ADFH         LINE#         69
  C:0ADFH         LINE#         71
  C:0AEEH         LINE#         72
  C:0AF6H         LINE#         73
  C:0AFAH         LINE#         74
  C:0AFAH         LINE#         75
  C:0B00H         LINE#         76
  -------         ENDPROC       POS_GETI2CKEYVALUE
  -------         ENDMOD        TOUCHKEYPAD

  -------         MODULE        SYSPOWER
  C:0000H         SYMBOL        _ICE_DUMMY_
  C:9C38H         PUBLIC        PowerOffSystem
  C:8DEDH         PUBLIC        PowerOnSystem
  -------         PROC          POWERONSYSTEM
  C:8DEDH         LINE#         46
  C:8DEDH         LINE#         47
  C:8DEDH         LINE#         55
BL51 BANKED LINKER/LOCATER V6.22                                                      06/07/2020  11:08:23  PAGE 91


  C:8DF3H         LINE#         62
  C:8DF6H         LINE#         66
  C:8DFBH         LINE#         67
  C:8E02H         LINE#         68
  C:8E0CH         LINE#         69
  C:8E0CH         LINE#         70
  C:8E12H         LINE#         71
  C:8E14H         LINE#         73
  C:8E14H         LINE#         74
  C:8E1CH         LINE#         75
  C:8E23H         LINE#         77
  C:8E2DH         LINE#         78
  C:8E2DH         LINE#         79
  C:8E32H         LINE#         80
  C:8E32H         LINE#         84
  C:8E3DH         LINE#         85
  C:8E3DH         LINE#         86
  C:8E40H         LINE#         87
  C:8E42H         LINE#         89
  C:8E42H         LINE#         90
  C:8E45H         LINE#         91
  C:8E45H         LINE#         96
  C:8E45H         LINE#         141
  C:8E4BH         LINE#         142
  C:8E53H         LINE#         144
  C:8E54H         LINE#         145
  -------         ENDPROC       POWERONSYSTEM
  -------         PROC          POWEROFFSYSTEM
  C:9C38H         LINE#         158
  C:9C38H         LINE#         159
  C:9C38H         LINE#         167
  C:9C3DH         LINE#         173
  C:9C40H         LINE#         174
  C:9C43H         LINE#         175
  C:9C4BH         LINE#         176
  C:9C4EH         LINE#         178
  C:9C51H         LINE#         179
  C:9C58H         LINE#         180
  C:9C60H         LINE#         181
  C:9C61H         LINE#         182
  -------         ENDPROC       POWEROFFSYSTEM
  -------         ENDMOD        SYSPOWER

  -------         MODULE        SYSWORKPARA
  C:0000H         SYMBOL        _ICE_DUMMY_
  C:6026H         PUBLIC        CheckSetting
  C:8AC3H         PUBLIC        _VerifySetting
  C:9108H         PUBLIC        ReadSetting
  C:88A7H         PUBLIC        ResetSetting
  C:9325H         PUBLIC        _ContSysCheckSum
  C:921FH         PUBLIC        SaveSetting
  -------         PROC          _CONTSYSCHECKSUM
  D:002FH         SYMBOL        pSysPara
  D:0032H         SYMBOL        numOper
  -------         DO            
  X:0063H         SYMBOL        i
  X:0065H         SYMBOL        tmpCheckSum
BL51 BANKED LINKER/LOCATER V6.22                                                      06/07/2020  11:08:23  PAGE 92


  -------         ENDDO         
  C:9325H         LINE#         31
  C:932FH         LINE#         32
  C:932FH         LINE#         34
  C:9334H         LINE#         36
  C:934AH         LINE#         37
  C:934AH         LINE#         38
  C:9361H         LINE#         39
  C:9371H         LINE#         40
  C:9376H         LINE#         41
  -------         ENDPROC       _CONTSYSCHECKSUM
  -------         PROC          CHECKSETTING
  C:6026H         LINE#         53
  C:6026H         LINE#         54
  C:6026H         LINE#         56
  C:602FH         LINE#         57
  C:602FH         LINE#         58
  C:6031H         LINE#         59
  C:6031H         LINE#         60
  C:603AH         LINE#         61
  C:603AH         LINE#         62
  C:603CH         LINE#         63
  C:603CH         LINE#         64
  C:6045H         LINE#         65
  C:6045H         LINE#         66
  C:6048H         LINE#         67
  C:6048H         LINE#         68
  C:6051H         LINE#         69
  C:6051H         LINE#         70
  C:6054H         LINE#         71
  C:6054H         LINE#         72
  C:605DH         LINE#         73
  C:605DH         LINE#         74
  C:6060H         LINE#         75
  C:6060H         LINE#         76
  C:6069H         LINE#         77
  C:6069H         LINE#         78
  C:606CH         LINE#         79
  C:606CH         LINE#         80
  C:6075H         LINE#         81
  C:6075H         LINE#         82
  C:6078H         LINE#         83
  C:6078H         LINE#         84
  C:6081H         LINE#         85
  C:6081H         LINE#         86
  C:6083H         LINE#         87
  C:6083H         LINE#         88
  C:608CH         LINE#         89
  C:608CH         LINE#         90
  C:608EH         LINE#         91
  C:608EH         LINE#         92
  C:6097H         LINE#         93
  C:6097H         LINE#         94
  C:6099H         LINE#         95
  C:6099H         LINE#         96
  C:60A4H         LINE#         97
  C:60A4H         LINE#         98
BL51 BANKED LINKER/LOCATER V6.22                                                      06/07/2020  11:08:23  PAGE 93


  C:60A6H         LINE#         99
  C:60A6H         LINE#         100
  C:60B1H         LINE#         101
  C:60B1H         LINE#         102
  C:60B3H         LINE#         103
  C:60B3H         LINE#         104
  C:60BCH         LINE#         105
  C:60BCH         LINE#         106
  C:60BEH         LINE#         107
  C:60BEH         LINE#         108
  C:60C7H         LINE#         109
  C:60C7H         LINE#         110
  C:60C9H         LINE#         111
  C:60C9H         LINE#         112
  C:60D2H         LINE#         113
  C:60D2H         LINE#         114
  C:60D4H         LINE#         115
  C:60D4H         LINE#         116
  C:60DDH         LINE#         117
  C:60DDH         LINE#         118
  C:60DFH         LINE#         119
  C:60DFH         LINE#         120
  C:60E8H         LINE#         121
  C:60E8H         LINE#         122
  C:60EBH         LINE#         123
  C:60EBH         LINE#         124
  C:60F4H         LINE#         125
  C:60F4H         LINE#         126
  C:60F7H         LINE#         127
  C:60F7H         LINE#         128
  C:6100H         LINE#         129
  C:6100H         LINE#         130
  C:6103H         LINE#         131
  C:6103H         LINE#         132
  C:610CH         LINE#         133
  C:610CH         LINE#         134
  C:610FH         LINE#         135
  C:610FH         LINE#         136
  C:6118H         LINE#         137
  C:6118H         LINE#         138
  C:611BH         LINE#         139
  C:611BH         LINE#         140
  C:6124H         LINE#         141
  C:6124H         LINE#         142
  C:6127H         LINE#         143
  C:6127H         LINE#         144
  C:6130H         LINE#         145
  C:6130H         LINE#         146
  C:6133H         LINE#         147
  C:6133H         LINE#         148
  C:613CH         LINE#         149
  C:613CH         LINE#         150
  C:613FH         LINE#         151
  C:613FH         LINE#         152
  C:6148H         LINE#         153
  C:6148H         LINE#         154
  C:614BH         LINE#         155
BL51 BANKED LINKER/LOCATER V6.22                                                      06/07/2020  11:08:23  PAGE 94


  C:614BH         LINE#         156
  C:6154H         LINE#         157
  C:6154H         LINE#         158
  C:6157H         LINE#         159
  C:6157H         LINE#         160
  -------         ENDPROC       CHECKSETTING
  -------         PROC          L?0051
  -------         ENDPROC       L?0051
  -------         PROC          _VERIFYSETTING
  D:0028H         SYMBOL        pSysPara
  D:002BH         SYMBOL        numOper
  D:002DH         SYMBOL        sysCheckSum
  -------         DO            
  X:0058H         SYMBOL        i
  X:005AH         SYMBOL        tmpCheckSum
  -------         ENDDO         
  C:8AC3H         LINE#         173
  C:8ACDH         LINE#         174
  C:8ACDH         LINE#         177
  C:8AD2H         LINE#         181
  C:8AE2H         LINE#         182
  C:8AE2H         LINE#         183
  C:8AF8H         LINE#         184
  C:8AF8H         LINE#         185
  C:8B0FH         LINE#         186
  C:8B1FH         LINE#         188
  C:8B26H         LINE#         189
  C:8B26H         LINE#         190
  C:8B28H         LINE#         191
  C:8B28H         LINE#         193
  C:8B28H         LINE#         194
  C:8B2AH         LINE#         195
  C:8B2AH         LINE#         196
  C:8B2AH         LINE#         198
  C:8B2AH         LINE#         199
  C:8B2BH         LINE#         200
  C:8B2BH         LINE#         203
  -------         ENDPROC       _VERIFYSETTING
  -------         PROC          SAVESETTING
  C:921FH         LINE#         218
  C:921FH         LINE#         219
  C:921FH         LINE#         224
  C:9222H         LINE#         227
  C:9228H         LINE#         228
  C:922EH         LINE#         229
  C:9240H         LINE#         232
  C:9243H         LINE#         233
  C:9243H         LINE#         235
  C:9245H         LINE#         236
  C:925AH         LINE#         237
  C:9261H         LINE#         238
  C:9278H         LINE#         239
  C:9278H         LINE#         241
  -------         ENDPROC       SAVESETTING
  -------         PROC          RESETSETTING
  C:88A7H         LINE#         257
  C:88A7H         LINE#         258
BL51 BANKED LINKER/LOCATER V6.22                                                      06/07/2020  11:08:23  PAGE 95


  C:88A7H         LINE#         260
  C:88ACH         LINE#         261
  C:88B0H         LINE#         262
  C:88B6H         LINE#         263
  C:88BAH         LINE#         264
  C:88BEH         LINE#         265
  C:88C2H         LINE#         266
  C:88C7H         LINE#         267
  C:88CBH         LINE#         268
  C:88CFH         LINE#         269
  C:88D5H         LINE#         270
  C:88D8H         LINE#         271
  C:88DCH         LINE#         272
  C:88DEH         LINE#         273
  C:88E2H         LINE#         274
  C:88E6H         LINE#         275
  C:88EBH         LINE#         276
  C:88F0H         LINE#         277
  C:88F4H         LINE#         278
  C:88F8H         LINE#         279
  C:88FCH         LINE#         280
  C:8901H         LINE#         281
  C:8904H         LINE#         282
  C:8909H         LINE#         283
  C:890CH         LINE#         284
  C:890EH         LINE#         285
  C:8912H         LINE#         286
  C:891AH         LINE#         287
  C:8922H         LINE#         288
  C:892AH         LINE#         289
  C:892FH         LINE#         290
  C:8931H         LINE#         291
  -------         ENDPROC       RESETSETTING
  -------         PROC          READSETTING
  C:9108H         LINE#         306
  C:9108H         LINE#         307
  C:9108H         LINE#         310
  C:9113H         LINE#         313
  C:9118H         LINE#         314
  C:9118H         LINE#         315
  C:9118H         LINE#         316
  C:911AH         LINE#         317
  C:911AH         LINE#         319
  C:911AH         LINE#         321
  C:9125H         LINE#         324
  C:912AH         LINE#         325
  C:912AH         LINE#         326
  C:912DH         LINE#         327
  C:912FH         LINE#         328
  C:912FH         LINE#         330
  C:912FH         LINE#         331
  C:9132H         LINE#         334
  C:914BH         LINE#         335
  C:9160H         LINE#         338
  C:9162H         LINE#         339
  C:9165H         LINE#         341
  C:9166H         LINE#         342
BL51 BANKED LINKER/LOCATER V6.22                                                      06/07/2020  11:08:23  PAGE 96


  C:9166H         LINE#         343
  C:9166H         LINE#         344
  -------         ENDPROC       READSETTING
  -------         ENDMOD        SYSWORKPARA

  -------         MODULE        VIDEOPROC
  C:0000H         SYMBOL        _ICE_DUMMY_
  D:0080H         PUBLIC        P0
  D:0090H         PUBLIC        P1
  D:00A0H         PUBLIC        P2
  D:00B0H         PUBLIC        P3
  D:00A8H         PUBLIC        IE
  D:00B8H         PUBLIC        IP
  C:9B5AH         PUBLIC        CheckColorSys
  C:998CH         PUBLIC        _SelVideoInputSource
  D:0098H         PUBLIC        SCON
  D:0088H         PUBLIC        TCON
  C:9B87H         PUBLIC        _SelNextVideoSource
  D:00E8H         PUBLIC        EIE
  D:00F8H         PUBLIC        EIP
  C:A5E8H         PUBLIC        _ConfigVideoInputSource
  D:00C0H         PUBLIC        SCON1
  D:00C8H         PUBLIC        T2CON
  D:00D8H         PUBLIC        EICON
  D:00D0H         PUBLIC        PSW
  C:A40DH         PUBLIC        InitARKChip
  -------         PROC          _CONFIGVIDEOINPUTSOURCE
  D:0007H         SYMBOL        curSource
  C:A5E8H         LINE#         42
  C:A5E8H         LINE#         43
  C:A5E8H         LINE#         44
  -------         ENDPROC       _CONFIGVIDEOINPUTSOURCE
  -------         PROC          CHECKCOLORSYS
  -------         DO            
  X:0063H         SYMBOL        i
  -------         ENDDO         
  C:9B5AH         LINE#         56
  C:9B5AH         LINE#         57
  C:9B5AH         LINE#         60
  C:9B60H         LINE#         61
  C:9B65H         LINE#         63
  C:9B69H         LINE#         64
  C:9B69H         LINE#         65
  C:9B70H         LINE#         66
  C:9B77H         LINE#         67
  C:9B77H         LINE#         68
  C:9B79H         LINE#         69
  C:9B79H         LINE#         70
  C:9B79H         LINE#         72
  C:9B85H         LINE#         73
  C:9B86H         LINE#         74
  -------         ENDPROC       CHECKCOLORSYS
  -------         PROC          _SELNEXTVIDEOSOURCE
  D:0007H         SYMBOL        curSource
  -------         DO            
  X:0063H         SYMBOL        ucSourceIndex
  C:A5EEH         SYMBOL        ucSourceInputBuf
BL51 BANKED LINKER/LOCATER V6.22                                                      06/07/2020  11:08:23  PAGE 97


  -------         ENDDO         
  C:9B87H         LINE#         77
  C:9B87H         LINE#         78
  C:9B87H         LINE#         82
  C:9B96H         LINE#         83
  C:9B96H         LINE#         84
  C:9B9EH         LINE#         85
  C:9B9EH         LINE#         86
  C:9B9EH         LINE#         87
  C:9B9EH         LINE#         88
  C:9BA6H         LINE#         90
  C:9BB3H         LINE#         91
  -------         ENDPROC       _SELNEXTVIDEOSOURCE
  -------         PROC          _SELVIDEOINPUTSOURCE
  D:002FH         SYMBOL        curSource
  C:998CH         LINE#         103
  C:998EH         LINE#         104
  C:998EH         LINE#         105
  C:9991H         LINE#         109
  C:9996H         LINE#         111
  C:9998H         LINE#         113
  C:99A0H         LINE#         115
  C:99A3H         LINE#         117
  C:99AAH         LINE#         119
  C:99AFH         LINE#         120
  C:99AFH         LINE#         121
  C:99B8H         LINE#         122
  C:99BBH         LINE#         123
  C:99BBH         LINE#         124
  -------         ENDPROC       _SELVIDEOINPUTSOURCE
  -------         PROC          INITARKCHIP
  C:A40DH         LINE#         137
  C:A40DH         LINE#         138
  C:A40DH         LINE#         141
  C:A410H         LINE#         143
  C:A413H         LINE#         145
  C:A416H         LINE#         151
  C:A419H         LINE#         155
  -------         ENDPROC       INITARKCHIP
  -------         ENDMOD        VIDEOPROC

  -------         MODULE        BATTERYADC
  C:0000H         SYMBOL        _ICE_DUMMY_
  -------         ENDMOD        BATTERYADC

  -------         MODULE        OSD_AMT630FONTLIB
  C:0000H         SYMBOL        _ICE_DUMMY_
  C:253EH         PUBLIC        KOREAN_4D3_0_12
  C:0F3EH         PUBLIC        AMT630FontLib
  C:24FEH         PUBLIC        KOREAN_4D3_12_14
  C:247EH         PUBLIC        AMT630Font_Char
  -------         ENDMOD        OSD_AMT630FONTLIB

  -------         MODULE        OSD_GENERALFONTDAT
  C:0000H         SYMBOL        _ICE_DUMMY_
  C:7E7CH         PUBLIC        FontRam_Char
  -------         ENDMOD        OSD_GENERALFONTDAT
BL51 BANKED LINKER/LOCATER V6.22                                                      06/07/2020  11:08:23  PAGE 98



  -------         MODULE        OSD_POWERONMENU
  C:0000H         SYMBOL        _ICE_DUMMY_
  D:0080H         PUBLIC        P0
  D:0090H         PUBLIC        P1
  D:00A0H         PUBLIC        P2
  D:00B0H         PUBLIC        P3
  C:98A3H         PUBLIC        PowerOnStr
  D:00A8H         PUBLIC        IE
  D:00B8H         PUBLIC        IP
  C:9E64H         PUBLIC        DispPowerOnStr
  C:98AFH         PUBLIC        Option_PowerOn
  D:0098H         PUBLIC        SCON
  D:0088H         PUBLIC        TCON
  C:98ACH         SYMBOL        _?ix1000
  C:98BDH         PUBLIC        PowerOnMenuItemVal_PowerOn
  D:00E8H         PUBLIC        EIE
  C:95B9H         PUBLIC        PowerOnMenu_CheckCondition
  D:00F8H         PUBLIC        EIP
  D:00C0H         PUBLIC        SCON1
  D:00C8H         PUBLIC        T2CON
  D:00D8H         PUBLIC        EICON
  C:A2EBH         PUBLIC        GetPowerOnInputSource
  D:00D0H         PUBLIC        PSW
  -------         PROC          DISPPOWERONSTR
  C:9E64H         LINE#         42
  C:9E64H         LINE#         43
  C:9E64H         LINE#         44
  C:9E85H         LINE#         45
  -------         ENDPROC       DISPPOWERONSTR
  -------         PROC          POWERONMENU_CHECKCONDITION
  -------         DO            
  X:0063H         SYMBOL        adjust
  -------         ENDDO         
  C:95B9H         LINE#         52
  C:95B9H         LINE#         53
  C:95B9H         LINE#         54
  C:95CCH         LINE#         56
  C:95D4H         LINE#         57
  C:95D4H         LINE#         58
  C:95D8H         LINE#         59
  C:95DAH         LINE#         61
  C:95DAH         LINE#         62
  C:95DEH         LINE#         63
  C:95DEH         LINE#         64
  C:95E1H         LINE#         65
  C:95E4H         LINE#         67
  C:95EBH         LINE#         68
  C:95EBH         LINE#         69
  C:95F2H         LINE#         70
  C:95F4H         LINE#         72
  C:95F4H         LINE#         73
  C:95F4H         LINE#         74
  C:95F4H         LINE#         76
  C:95FAH         LINE#         77
  -------         ENDPROC       POWERONMENU_CHECKCONDITION
  -------         PROC          GETPOWERONINPUTSOURCE
BL51 BANKED LINKER/LOCATER V6.22                                                      06/07/2020  11:08:23  PAGE 99


  C:A2EBH         LINE#         81
  C:A2EBH         LINE#         82
  C:A2EBH         LINE#         83
  C:A2F7H         LINE#         84
  C:A2F7H         LINE#         85
  C:A2F7H         LINE#         86
  C:A2F9H         LINE#         88
  C:A2F9H         LINE#         89
  C:A2F9H         LINE#         90
  C:A2FEH         LINE#         92
  C:A301H         LINE#         94
  C:A301H         LINE#         95
  -------         ENDPROC       GETPOWERONINPUTSOURCE
  -------         ENDMOD        OSD_POWERONMENU

  -------         MODULE        OSD_POWEROFFMENU
  C:0000H         SYMBOL        _ICE_DUMMY_
  D:0080H         PUBLIC        P0
  D:0090H         PUBLIC        P1
  D:00A0H         PUBLIC        P2
  D:00B0H         PUBLIC        P3
  D:00A8H         PUBLIC        IE
  D:00B8H         PUBLIC        IP
  D:0098H         PUBLIC        SCON
  D:0088H         PUBLIC        TCON
  D:00E8H         PUBLIC        EIE
  D:00F8H         PUBLIC        EIP
  D:00C0H         PUBLIC        SCON1
  D:00C8H         PUBLIC        T2CON
  D:00D8H         PUBLIC        EICON
  D:00D0H         PUBLIC        PSW
  -------         ENDMOD        OSD_POWEROFFMENU

  -------         MODULE        OSD_ROOTMENU
  C:0000H         SYMBOL        _ICE_DUMMY_
  D:0080H         PUBLIC        P0
  D:0090H         PUBLIC        P1
  D:00A0H         PUBLIC        P2
  D:00B0H         PUBLIC        P3
  D:00A8H         PUBLIC        IE
  D:00B8H         PUBLIC        IP
  D:0098H         PUBLIC        SCON
  D:0088H         PUBLIC        TCON
  D:00E8H         PUBLIC        EIE
  D:00F8H         PUBLIC        EIP
  D:00C0H         PUBLIC        SCON1
  D:00C8H         PUBLIC        T2CON
  D:00D8H         PUBLIC        EICON
  D:00D0H         PUBLIC        PSW
  -------         ENDMOD        OSD_ROOTMENU

  -------         MODULE        OSD_LOGOMENU
  C:0000H         SYMBOL        _ICE_DUMMY_
  D:0080H         PUBLIC        P0
  D:0090H         PUBLIC        P1
  D:00A0H         PUBLIC        P2
  D:00B0H         PUBLIC        P3
BL51 BANKED LINKER/LOCATER V6.22                                                      06/07/2020  11:08:23  PAGE 100


  D:00A8H         PUBLIC        IE
  D:00B8H         PUBLIC        IP
  C:A54FH         PUBLIC        LogoList
  D:0098H         PUBLIC        SCON
  D:0088H         PUBLIC        TCON
  D:00E8H         PUBLIC        EIE
  D:00F8H         PUBLIC        EIP
  D:00C0H         PUBLIC        SCON1
  D:00C8H         PUBLIC        T2CON
  D:00D8H         PUBLIC        EICON
  D:00D0H         PUBLIC        PSW
  -------         ENDMOD        OSD_LOGOMENU

  -------         MODULE        OSD_BATTERYADCMENU
  C:0000H         SYMBOL        _ICE_DUMMY_
  D:0080H         PUBLIC        P0
  D:0090H         PUBLIC        P1
  D:00A0H         PUBLIC        P2
  D:00B0H         PUBLIC        P3
  D:00A8H         PUBLIC        IE
  D:00B8H         PUBLIC        IP
  D:0098H         PUBLIC        SCON
  D:0088H         PUBLIC        TCON
  D:00E8H         PUBLIC        EIE
  D:00F8H         PUBLIC        EIP
  D:00C0H         PUBLIC        SCON1
  D:00C8H         PUBLIC        T2CON
  D:00D8H         PUBLIC        EICON
  D:00D0H         PUBLIC        PSW
  -------         ENDMOD        OSD_BATTERYADCMENU

  -------         MODULE        OSD_NOSIGNALMENU
  C:0000H         SYMBOL        _ICE_DUMMY_
  D:0080H         PUBLIC        P0
  D:0090H         PUBLIC        P1
  D:00A0H         PUBLIC        P2
  D:00B0H         PUBLIC        P3
  D:00A8H         PUBLIC        IE
  D:00B8H         PUBLIC        IP
  D:0098H         PUBLIC        SCON
  D:0088H         PUBLIC        TCON
  D:00E8H         PUBLIC        EIE
  D:00F8H         PUBLIC        EIP
  D:00C0H         PUBLIC        SCON1
  D:00C8H         PUBLIC        T2CON
  D:00D8H         PUBLIC        EICON
  D:00D0H         PUBLIC        PSW
  -------         ENDMOD        OSD_NOSIGNALMENU

  -------         MODULE        OSD_BTMENU
  C:0000H         SYMBOL        _ICE_DUMMY_
  D:0080H         PUBLIC        P0
  D:0090H         PUBLIC        P1
  D:00A0H         PUBLIC        P2
  D:00B0H         PUBLIC        P3
  D:00A8H         PUBLIC        IE
  D:00B8H         PUBLIC        IP
BL51 BANKED LINKER/LOCATER V6.22                                                      06/07/2020  11:08:23  PAGE 101


  D:0098H         PUBLIC        SCON
  D:0088H         PUBLIC        TCON
  D:00E8H         PUBLIC        EIE
  D:00F8H         PUBLIC        EIP
  D:00C0H         PUBLIC        SCON1
  D:00C8H         PUBLIC        T2CON
  D:00D8H         PUBLIC        EICON
  D:00D0H         PUBLIC        PSW
  -------         ENDMOD        OSD_BTMENU

  -------         MODULE        OSD_BTCALLERMENU
  C:0000H         SYMBOL        _ICE_DUMMY_
  D:0080H         PUBLIC        P0
  D:0090H         PUBLIC        P1
  D:00A0H         PUBLIC        P2
  D:00B0H         PUBLIC        P3
  D:00A8H         PUBLIC        IE
  D:00B8H         PUBLIC        IP
  D:0098H         PUBLIC        SCON
  D:0088H         PUBLIC        TCON
  D:00E8H         PUBLIC        EIE
  D:00F8H         PUBLIC        EIP
  D:00C0H         PUBLIC        SCON1
  D:00C8H         PUBLIC        T2CON
  D:00D8H         PUBLIC        EICON
  D:00D0H         PUBLIC        PSW
  -------         ENDMOD        OSD_BTCALLERMENU

  -------         MODULE        OSD_QUICKLYSOURCEMENU
  C:0000H         SYMBOL        _ICE_DUMMY_
  D:0080H         PUBLIC        P0
  D:0090H         PUBLIC        P1
  D:00A0H         PUBLIC        P2
  D:00B0H         PUBLIC        P3
  D:00A8H         PUBLIC        IE
  C:A302H         PUBLIC        GetQuicklyInputSource
  C:98D4H         PUBLIC        QuicklySourceStr
  D:00B8H         PUBLIC        IP
  C:9E86H         PUBLIC        DispQuicklySourceStr
  D:0098H         PUBLIC        SCON
  D:0088H         PUBLIC        TCON
  C:98E0H         PUBLIC        Option_QuicklySource
  C:98DDH         SYMBOL        _?ix1000
  C:A32FH         PUBLIC        _AdjustQuicklySource
  D:00E8H         PUBLIC        EIE
  C:812AH         PUBLIC        ExectQuicklySource
  D:00F8H         PUBLIC        EIP
  C:95FBH         PUBLIC        QuicklySourceMenu_CheckCondition
  D:00C0H         PUBLIC        SCON1
  D:00C8H         PUBLIC        T2CON
  C:98EEH         PUBLIC        QuicklySourceMenuItemVal_QuicklySource
  D:00D8H         PUBLIC        EICON
  D:00D0H         PUBLIC        PSW
  -------         PROC          DISPQUICKLYSOURCESTR
  C:9E86H         LINE#         41
  C:9E86H         LINE#         42
  C:9E86H         LINE#         43
BL51 BANKED LINKER/LOCATER V6.22                                                      06/07/2020  11:08:23  PAGE 102


  C:9EA7H         LINE#         44
  -------         ENDPROC       DISPQUICKLYSOURCESTR
  -------         PROC          QUICKLYSOURCEMENU_CHECKCONDITION
  -------         DO            
  X:0063H         SYMBOL        adjust
  -------         ENDDO         
  C:95FBH         LINE#         50
  C:95FBH         LINE#         51
  C:95FBH         LINE#         52
  C:960EH         LINE#         54
  C:9616H         LINE#         55
  C:9616H         LINE#         56
  C:961AH         LINE#         57
  C:961CH         LINE#         59
  C:961CH         LINE#         60
  C:9620H         LINE#         61
  C:9620H         LINE#         62
  C:9623H         LINE#         63
  C:9626H         LINE#         65
  C:962DH         LINE#         66
  C:962DH         LINE#         67
  C:9634H         LINE#         68
  C:9636H         LINE#         70
  C:9636H         LINE#         71
  C:9636H         LINE#         72
  C:9636H         LINE#         74
  C:963CH         LINE#         75
  -------         ENDPROC       QUICKLYSOURCEMENU_CHECKCONDITION
  -------         PROC          GETQUICKLYINPUTSOURCE
  C:A302H         LINE#         78
  C:A302H         LINE#         79
  C:A302H         LINE#         80
  C:A30EH         LINE#         81
  C:A30EH         LINE#         82
  C:A30EH         LINE#         83
  C:A310H         LINE#         85
  C:A310H         LINE#         86
  C:A310H         LINE#         87
  C:A315H         LINE#         89
  C:A318H         LINE#         91
  C:A318H         LINE#         92
  -------         ENDPROC       GETQUICKLYINPUTSOURCE
  -------         PROC          _ADJUSTQUICKLYSOURCE
  D:0007H         SYMBOL        opratComd
  C:A32FH         LINE#         94
  C:A32FH         LINE#         95
  C:A32FH         LINE#         96
  C:A32FH         LINE#         98
  C:A332H         LINE#         99
  C:A332H         LINE#         100
  C:A33FH         LINE#         101
  C:A343H         LINE#         102
  C:A343H         LINE#         103
  C:A344H         LINE#         104
  -------         ENDPROC       _ADJUSTQUICKLYSOURCE
  -------         PROC          EXECTQUICKLYSOURCE
  C:812AH         LINE#         106
BL51 BANKED LINKER/LOCATER V6.22                                                      06/07/2020  11:08:23  PAGE 103


  C:812AH         LINE#         107
  C:812AH         LINE#         108
  C:812DH         LINE#         109
  C:812DH         LINE#         115
  C:8130H         LINE#         116
  C:8133H         LINE#         117
  C:8136H         LINE#         118
  C:813EH         LINE#         119
  C:8145H         LINE#         122
  C:8150H         LINE#         123
  C:8150H         LINE#         124
  C:8150H         LINE#         125
  C:8150H         LINE#         129
  C:8152H         LINE#         131
  C:8152H         LINE#         132
  C:815FH         LINE#         133
  C:815FH         LINE#         139
  C:8162H         LINE#         143
  C:8165H         LINE#         151
  C:8168H         LINE#         152
  C:8170H         LINE#         153
  C:8177H         LINE#         156
  C:8182H         LINE#         157
  C:8182H         LINE#         158
  C:8182H         LINE#         159
  C:8182H         LINE#         174
  C:8184H         LINE#         176
  C:8184H         LINE#         177
  C:818AH         LINE#         178
  C:818AH         LINE#         179
  C:818DH         LINE#         180
  C:8194H         LINE#         182
  C:819FH         LINE#         183
  C:819FH         LINE#         184
  C:819FH         LINE#         185
  C:819FH         LINE#         189
  C:81A1H         LINE#         191
  C:81A1H         LINE#         194
  C:81A4H         LINE#         195
  C:81A7H         LINE#         196
  C:81AEH         LINE#         197
  C:81B9H         LINE#         198
  C:81B9H         LINE#         199
  C:81BCH         LINE#         200
  C:81BEH         LINE#         202
  C:81BEH         LINE#         203
  C:81C1H         LINE#         204
  C:81C1H         LINE#         214
  C:81C1H         LINE#         215
  C:81C1H         LINE#         216
  C:81C1H         LINE#         217
  C:81C9H         LINE#         218
  C:81CAH         LINE#         219
  -------         ENDPROC       EXECTQUICKLYSOURCE
  -------         ENDMOD        OSD_QUICKLYSOURCEMENU

  -------         MODULE        OSD_QUICKLYMUTEMENU
BL51 BANKED LINKER/LOCATER V6.22                                                      06/07/2020  11:08:23  PAGE 104


  C:0000H         SYMBOL        _ICE_DUMMY_
  D:0080H         PUBLIC        P0
  D:0090H         PUBLIC        P1
  C:A5F0H         PUBLIC        ExectQuicklyMute
  D:00A0H         PUBLIC        P2
  D:00B0H         PUBLIC        P3
  C:9E1EH         PUBLIC        QuicklyMuteMenu_CheckCondition
  D:00A8H         PUBLIC        IE
  D:00B8H         PUBLIC        IP
  D:0098H         PUBLIC        SCON
  D:0088H         PUBLIC        TCON
  C:9DEEH         PUBLIC        QuicklyMuteMenuItemVal_QuicklyMute
  C:9DD7H         PUBLIC        QuicklyMuteStr
  C:9DDDH         SYMBOL        _?ix1000
  C:A557H         PUBLIC        GetQuicklyMuteVal
  C:9EA8H         PUBLIC        DispQuicklyMuteStr
  D:00E8H         PUBLIC        EIE
  D:00F8H         PUBLIC        EIP
  C:9DE0H         PUBLIC        Option_QuicklyMute
  D:00C0H         PUBLIC        SCON1
  D:00C8H         PUBLIC        T2CON
  D:00D8H         PUBLIC        EICON
  C:A345H         PUBLIC        _AdjustQuicklyMute
  D:00D0H         PUBLIC        PSW
  -------         PROC          DISPQUICKLYMUTESTR
  C:9EA8H         LINE#         39
  C:9EA8H         LINE#         40
  C:9EA8H         LINE#         41
  C:9EC9H         LINE#         42
  -------         ENDPROC       DISPQUICKLYMUTESTR
  -------         PROC          QUICKLYMUTEMENU_CHECKCONDITION
  -------         DO            
  X:0063H         SYMBOL        adjust
  -------         ENDDO         
  C:9E1EH         LINE#         48
  C:9E1EH         LINE#         49
  C:9E1EH         LINE#         50
  C:9E31H         LINE#         51
  C:9E38H         LINE#         52
  C:9E3BH         LINE#         54
  C:9E41H         LINE#         55
  -------         ENDPROC       QUICKLYMUTEMENU_CHECKCONDITION
  -------         PROC          GETQUICKLYMUTEVAL
  C:A557H         LINE#         57
  C:A557H         LINE#         58
  C:A557H         LINE#         59
  C:A55EH         LINE#         60
  -------         ENDPROC       GETQUICKLYMUTEVAL
  -------         PROC          _ADJUSTQUICKLYMUTE
  D:0007H         SYMBOL        opratComd
  C:A345H         LINE#         63
  C:A345H         LINE#         64
  C:A345H         LINE#         65
  C:A348H         LINE#         66
  C:A348H         LINE#         67
  C:A359H         LINE#         69
  C:A359H         LINE#         70
BL51 BANKED LINKER/LOCATER V6.22                                                      06/07/2020  11:08:23  PAGE 105


  C:A35AH         LINE#         71
  -------         ENDPROC       _ADJUSTQUICKLYMUTE
  -------         PROC          EXECTQUICKLYMUTE
  C:A5F0H         LINE#         74
  C:A5F0H         LINE#         75
  C:A5F0H         LINE#         76
  C:A5F0H         LINE#         77
  C:A5F0H         LINE#         81
  C:A5F0H         LINE#         83
  C:A5F0H         LINE#         87
  C:A5F0H         LINE#         88
  C:A5F1H         LINE#         89
  -------         ENDPROC       EXECTQUICKLYMUTE
  -------         ENDMOD        OSD_QUICKLYMUTEMENU

  -------         MODULE        OSD_BRIGHTNESSMENU
  C:0000H         SYMBOL        _ICE_DUMMY_
  D:0080H         PUBLIC        P0
  D:0090H         PUBLIC        P1
  D:00A0H         PUBLIC        P2
  D:00B0H         PUBLIC        P3
  D:00A8H         PUBLIC        IE
  C:98F9H         PUBLIC        _AdjustBrightness
  D:00B8H         PUBLIC        IP
  C:001EH         PUBLIC        ExectBrightness
  C:963DH         PUBLIC        BrightnessMenu_CheckCondition
  D:0098H         PUBLIC        SCON
  D:0088H         PUBLIC        TCON
  C:6252H         SYMBOL        _?ix1000
  C:A464H         PUBLIC        BrightnessMenuItem_DrawStyle
  D:00E8H         PUBLIC        EIE
  C:0026H         PUBLIC        BrightnessMenu_TitelStr
  D:00F8H         PUBLIC        EIP
  D:00C0H         PUBLIC        SCON1
  C:A55FH         PUBLIC        GetBrightnessVal
  D:00C8H         PUBLIC        T2CON
  C:6277H         PUBLIC        BrightnessMenuItem_BrightnessTitelTab
  C:6260H         PUBLIC        Gugae_Brightness
  C:6255H         PUBLIC        Number_Brightness
  D:00D8H         PUBLIC        EICON
  C:626CH         PUBLIC        BrightnessMenuItemVal_Brightness
  C:6228H         PUBLIC        BrightnessMenuStr
  D:00D0H         PUBLIC        PSW
  -------         PROC          BRIGHTNESSMENU_TITELSTR
  C:0026H         LINE#         50
  C:0026H         LINE#         51
  C:0026H         LINE#         52
  C:0042H         LINE#         53
  -------         ENDPROC       BRIGHTNESSMENU_TITELSTR
  -------         PROC          BRIGHTNESSMENU_CHECKCONDITION
  -------         DO            
  X:0063H         SYMBOL        adjust
  -------         ENDDO         
  C:963DH         LINE#         60
  C:963DH         LINE#         61
  C:963DH         LINE#         62
  C:9650H         LINE#         63
BL51 BANKED LINKER/LOCATER V6.22                                                      06/07/2020  11:08:23  PAGE 106


  C:9658H         LINE#         64
  C:9658H         LINE#         65
  C:965CH         LINE#         66
  C:965EH         LINE#         68
  C:965EH         LINE#         69
  C:9662H         LINE#         70
  C:9662H         LINE#         71
  C:9665H         LINE#         72
  C:9668H         LINE#         74
  C:9670H         LINE#         75
  C:9678H         LINE#         77
  C:967EH         LINE#         78
  -------         ENDPROC       BRIGHTNESSMENU_CHECKCONDITION
  -------         PROC          BRIGHTNESSMENUITEM_DRAWSTYLE
  C:A464H         LINE#         81
  C:A464H         LINE#         82
  C:A464H         LINE#         84
  C:A46FH         LINE#         85
  C:A470H         LINE#         86
  -------         ENDPROC       BRIGHTNESSMENUITEM_DRAWSTYLE
  -------         PROC          GETBRIGHTNESSVAL
  C:A55FH         LINE#         89
  C:A55FH         LINE#         90
  C:A55FH         LINE#         92
  C:A566H         LINE#         93
  -------         ENDPROC       GETBRIGHTNESSVAL
  -------         PROC          _ADJUSTBRIGHTNESS
  D:0007H         SYMBOL        opratComd
  C:98F9H         LINE#         96
  C:98F9H         LINE#         97
  C:98F9H         LINE#         98
  C:98FCH         LINE#         99
  C:98FCH         LINE#         100
  C:9905H         LINE#         101
  C:9905H         LINE#         102
  C:9908H         LINE#         103
  C:9908H         LINE#         104
  C:9908H         LINE#         105
  C:990BH         LINE#         106
  C:990BH         LINE#         107
  C:9914H         LINE#         108
  C:9914H         LINE#         109
  C:9917H         LINE#         110
  C:9917H         LINE#         111
  C:9917H         LINE#         112
  C:991AH         LINE#         113
  C:991AH         LINE#         114
  C:9920H         LINE#         115
  C:9926H         LINE#         116
  C:9926H         LINE#         117
  C:9928H         LINE#         118
  C:9928H         LINE#         120
  C:9928H         LINE#         121
  C:9929H         LINE#         122
  -------         ENDPROC       _ADJUSTBRIGHTNESS
  -------         PROC          EXECTBRIGHTNESS
  C:001EH         LINE#         125
BL51 BANKED LINKER/LOCATER V6.22                                                      06/07/2020  11:08:23  PAGE 107


  C:001EH         LINE#         126
  C:001EH         LINE#         128
  C:0021H         LINE#         129
  C:0022H         LINE#         130
  -------         ENDPROC       EXECTBRIGHTNESS
  -------         ENDMOD        OSD_BRIGHTNESSMENU

  -------         MODULE        OSD_CONTRASTMENU
  C:0000H         SYMBOL        _ICE_DUMMY_
  D:0080H         PUBLIC        P0
  D:0090H         PUBLIC        P1
  D:00A0H         PUBLIC        P2
  D:00B0H         PUBLIC        P3
  C:A495H         PUBLIC        ContrastMenuItem_DrawStyle
  C:A078H         PUBLIC        ContrastMenu_TitelStr
  D:00A8H         PUBLIC        IE
  D:00B8H         PUBLIC        IP
  C:A567H         PUBLIC        GetContrastVal
  C:68F5H         PUBLIC        Gugae_Contrast
  C:68EAH         PUBLIC        Number_Contrast
  C:68BDH         PUBLIC        ContrastMenuStr
  D:0098H         PUBLIC        SCON
  D:0088H         PUBLIC        TCON
  C:68E7H         SYMBOL        _?ix1000
  C:992AH         PUBLIC        _AdjustContrast
  C:0046H         PUBLIC        ExectContrast
  C:690CH         PUBLIC        ContrastMenuItem_ContrastTitelTab
  D:00E8H         PUBLIC        EIE
  C:6901H         PUBLIC        ContrastMenuItemVal_Contrast
  C:9FB7H         PUBLIC        ContrastMenu_CheckCondition
  D:00F8H         PUBLIC        EIP
  D:00C0H         PUBLIC        SCON1
  D:00C8H         PUBLIC        T2CON
  D:00D8H         PUBLIC        EICON
  D:00D0H         PUBLIC        PSW
  -------         PROC          CONTRASTMENU_TITELSTR
  C:A078H         LINE#         50
  C:A078H         LINE#         51
  C:A078H         LINE#         52
  C:A094H         LINE#         53
  -------         ENDPROC       CONTRASTMENU_TITELSTR
  -------         PROC          CONTRASTMENU_CHECKCONDITION
  -------         DO            
  X:0063H         SYMBOL        adjust
  -------         ENDDO         
  C:9FB7H         LINE#         60
  C:9FB7H         LINE#         61
  C:9FB7H         LINE#         62
  C:9FCAH         LINE#         63
  C:9FD1H         LINE#         65
  C:9FD7H         LINE#         66
  -------         ENDPROC       CONTRASTMENU_CHECKCONDITION
  -------         PROC          CONTRASTMENUITEM_DRAWSTYLE
  C:A495H         LINE#         71
  C:A495H         LINE#         72
  C:A495H         LINE#         74
  C:A49FH         LINE#         75
BL51 BANKED LINKER/LOCATER V6.22                                                      06/07/2020  11:08:23  PAGE 108


  C:A4A0H         LINE#         76
  -------         ENDPROC       CONTRASTMENUITEM_DRAWSTYLE
  -------         PROC          GETCONTRASTVAL
  C:A567H         LINE#         79
  C:A567H         LINE#         80
  C:A567H         LINE#         82
  C:A56EH         LINE#         83
  -------         ENDPROC       GETCONTRASTVAL
  -------         PROC          _ADJUSTCONTRAST
  D:0007H         SYMBOL        opratComd
  C:992AH         LINE#         86
  C:992AH         LINE#         87
  C:992AH         LINE#         88
  C:992DH         LINE#         89
  C:992DH         LINE#         90
  C:9936H         LINE#         91
  C:9936H         LINE#         92
  C:9939H         LINE#         93
  C:9939H         LINE#         95
  C:9939H         LINE#         96
  C:993CH         LINE#         97
  C:993CH         LINE#         98
  C:9945H         LINE#         99
  C:9945H         LINE#         100
  C:9948H         LINE#         101
  C:9948H         LINE#         103
  C:9948H         LINE#         104
  C:994BH         LINE#         105
  C:994BH         LINE#         106
  C:9951H         LINE#         107
  C:9957H         LINE#         108
  C:9957H         LINE#         109
  C:9959H         LINE#         110
  C:9959H         LINE#         112
  C:9959H         LINE#         113
  C:995AH         LINE#         114
  -------         ENDPROC       _ADJUSTCONTRAST
  -------         PROC          EXECTCONTRAST
  C:0046H         LINE#         117
  C:0046H         LINE#         118
  C:0046H         LINE#         119
  C:0049H         LINE#         120
  C:004AH         LINE#         121
  -------         ENDPROC       EXECTCONTRAST
  -------         ENDMOD        OSD_CONTRASTMENU

  -------         MODULE        OSD_SATURATIONMENU
  C:0000H         SYMBOL        _ICE_DUMMY_
  C:67E8H         PUBLIC        Number_Saturation
  D:0080H         PUBLIC        P0
  D:0090H         PUBLIC        P1
  D:00A0H         PUBLIC        P2
  D:00B0H         PUBLIC        P3
  C:67BBH         PUBLIC        SaturationMenuStr
  C:680AH         PUBLIC        SaturationMenuItem_SaturationTitelTab
  D:00A8H         PUBLIC        IE
  C:67FFH         PUBLIC        SaturationMenuItemVal_Saturation
BL51 BANKED LINKER/LOCATER V6.22                                                      06/07/2020  11:08:23  PAGE 109


  D:00B8H         PUBLIC        IP
  C:995BH         PUBLIC        _AdjustSaturation
  C:004EH         PUBLIC        ExectSaturation
  D:0098H         PUBLIC        SCON
  D:0088H         PUBLIC        TCON
  C:9FD8H         PUBLIC        SaturationMenu_CheckCondition
  C:67E5H         SYMBOL        _?ix1000
  D:00E8H         PUBLIC        EIE
  D:00F8H         PUBLIC        EIP
  C:A4A1H         PUBLIC        SaturationMenuItem_DrawStyle
  D:00C0H         PUBLIC        SCON1
  D:00C8H         PUBLIC        T2CON
  C:A095H         PUBLIC        SaturationMenu_TitelStr
  D:00D8H         PUBLIC        EICON
  C:A56FH         PUBLIC        GetSaturationVal
  D:00D0H         PUBLIC        PSW
  C:67F3H         PUBLIC        Gugae_Saturation
  -------         PROC          SATURATIONMENU_TITELSTR
  C:A095H         LINE#         50
  C:A095H         LINE#         51
  C:A095H         LINE#         52
  C:A0B1H         LINE#         53
  -------         ENDPROC       SATURATIONMENU_TITELSTR
  -------         PROC          SATURATIONMENU_CHECKCONDITION
  -------         DO            
  X:0063H         SYMBOL        adjust
  -------         ENDDO         
  C:9FD8H         LINE#         60
  C:9FD8H         LINE#         61
  C:9FD8H         LINE#         62
  C:9FEBH         LINE#         63
  C:9FF2H         LINE#         65
  C:9FF8H         LINE#         66
  -------         ENDPROC       SATURATIONMENU_CHECKCONDITION
  -------         PROC          SATURATIONMENUITEM_DRAWSTYLE
  C:A4A1H         LINE#         72
  C:A4A1H         LINE#         73
  C:A4A1H         LINE#         75
  C:A4ABH         LINE#         76
  C:A4ACH         LINE#         77
  -------         ENDPROC       SATURATIONMENUITEM_DRAWSTYLE
  -------         PROC          GETSATURATIONVAL
  C:A56FH         LINE#         80
  C:A56FH         LINE#         81
  C:A56FH         LINE#         83
  C:A576H         LINE#         84
  -------         ENDPROC       GETSATURATIONVAL
  -------         PROC          _ADJUSTSATURATION
  D:0007H         SYMBOL        opratComd
  C:995BH         LINE#         87
  C:995BH         LINE#         88
  C:995BH         LINE#         89
  C:995EH         LINE#         90
  C:995EH         LINE#         91
  C:9967H         LINE#         92
  C:9967H         LINE#         93
  C:996AH         LINE#         94
BL51 BANKED LINKER/LOCATER V6.22                                                      06/07/2020  11:08:23  PAGE 110


  C:996AH         LINE#         96
  C:996AH         LINE#         97
  C:996DH         LINE#         98
  C:996DH         LINE#         99
  C:9976H         LINE#         100
  C:9976H         LINE#         101
  C:9979H         LINE#         102
  C:9979H         LINE#         104
  C:9979H         LINE#         105
  C:997CH         LINE#         106
  C:997CH         LINE#         107
  C:9982H         LINE#         108
  C:9988H         LINE#         109
  C:9988H         LINE#         110
  C:998AH         LINE#         111
  C:998AH         LINE#         113
  C:998AH         LINE#         114
  C:998BH         LINE#         115
  -------         ENDPROC       _ADJUSTSATURATION
  -------         PROC          EXECTSATURATION
  C:004EH         LINE#         118
  C:004EH         LINE#         119
  C:004EH         LINE#         120
  C:0051H         LINE#         121
  C:0052H         LINE#         122
  -------         ENDPROC       EXECTSATURATION
  -------         ENDMOD        OSD_SATURATIONMENU

  -------         MODULE        OSD_TINTMENU
  C:0000H         SYMBOL        _ICE_DUMMY_
  D:0080H         PUBLIC        P0
  D:0090H         PUBLIC        P1
  D:00A0H         PUBLIC        P2
  D:00B0H         PUBLIC        P3
  D:00A8H         PUBLIC        IE
  C:A03AH         PUBLIC        _AdjustTint
  D:00B8H         PUBLIC        IP
  C:0056H         PUBLIC        ExectTint
  C:9A48H         PUBLIC        TintMenu_CheckCondition
  D:0098H         PUBLIC        SCON
  D:0088H         PUBLIC        TCON
  C:848EH         SYMBOL        _?ix1000
  C:A4ADH         PUBLIC        TintMenuItem_DrawStyle
  D:00E8H         PUBLIC        EIE
  C:A0B2H         PUBLIC        TintMenu_TitelStr
  D:00F8H         PUBLIC        EIP
  D:00C0H         PUBLIC        SCON1
  D:00C8H         PUBLIC        T2CON
  C:A577H         PUBLIC        GetTintVal
  C:84B3H         PUBLIC        TintMenuItem_TintTitelTab
  C:849CH         PUBLIC        Gugae_Tint
  C:8491H         PUBLIC        Number_Tint
  D:00D8H         PUBLIC        EICON
  C:84A8H         PUBLIC        TintMenuItemVal_Tint
  C:8464H         PUBLIC        TintMenuStr
  D:00D0H         PUBLIC        PSW
  -------         PROC          TINTMENU_TITELSTR
BL51 BANKED LINKER/LOCATER V6.22                                                      06/07/2020  11:08:23  PAGE 111


  C:A0B2H         LINE#         50
  C:A0B2H         LINE#         51
  C:A0B2H         LINE#         52
  C:A0CEH         LINE#         53
  -------         ENDPROC       TINTMENU_TITELSTR
  -------         PROC          TINTMENU_CHECKCONDITION
  -------         DO            
  X:0063H         SYMBOL        adjust
  -------         ENDDO         
  C:9A48H         LINE#         60
  C:9A48H         LINE#         61
  C:9A48H         LINE#         62
  C:9A5BH         LINE#         64
  C:9A65H         LINE#         65
  C:9A65H         LINE#         66
  C:9A69H         LINE#         68
  C:9A6BH         LINE#         70
  C:9A6BH         LINE#         71
  C:9A6FH         LINE#         73
  C:9A6FH         LINE#         75
  C:9A75H         LINE#         76
  -------         ENDPROC       TINTMENU_CHECKCONDITION
  -------         PROC          TINTMENUITEM_DRAWSTYLE
  C:A4ADH         LINE#         80
  C:A4ADH         LINE#         81
  C:A4ADH         LINE#         83
  C:A4B7H         LINE#         84
  C:A4B8H         LINE#         85
  -------         ENDPROC       TINTMENUITEM_DRAWSTYLE
  -------         PROC          GETTINTVAL
  C:A577H         LINE#         88
  C:A577H         LINE#         89
  C:A577H         LINE#         91
  C:A57EH         LINE#         92
  -------         ENDPROC       GETTINTVAL
  -------         PROC          _ADJUSTTINT
  D:0007H         SYMBOL        opratComd
  C:A03AH         LINE#         95
  C:A03AH         LINE#         96
  C:A03AH         LINE#         97
  C:A03DH         LINE#         98
  C:A03DH         LINE#         100
  C:A046H         LINE#         101
  C:A046H         LINE#         102
  C:A049H         LINE#         103
  C:A049H         LINE#         105
  C:A049H         LINE#         106
  C:A04CH         LINE#         107
  C:A04CH         LINE#         109
  C:A055H         LINE#         110
  C:A055H         LINE#         111
  C:A058H         LINE#         112
  C:A058H         LINE#         114
  C:A058H         LINE#         115
  C:A059H         LINE#         116
  -------         ENDPROC       _ADJUSTTINT
  -------         PROC          EXECTTINT
BL51 BANKED LINKER/LOCATER V6.22                                                      06/07/2020  11:08:23  PAGE 112


  C:0056H         LINE#         119
  C:0056H         LINE#         120
  C:0056H         LINE#         121
  C:0059H         LINE#         122
  C:005AH         LINE#         123
  -------         ENDPROC       EXECTTINT
  -------         ENDMOD        OSD_TINTMENU

  -------         MODULE        OSD_VOLUMEMENU
  C:0000H         SYMBOL        _ICE_DUMMY_
  D:0080H         PUBLIC        P0
  D:0090H         PUBLIC        P1
  D:00A0H         PUBLIC        P2
  D:00B0H         PUBLIC        P3
  C:96BFH         PUBLIC        VolumeMenu_CheckCondition
  D:00A8H         PUBLIC        IE
  D:00B8H         PUBLIC        IP
  C:8AA7H         PUBLIC        VolumeMenuItem_VolumeTitelTab
  C:8A9CH         PUBLIC        VolumeMenuItemVal_Volume
  C:A4B9H         PUBLIC        VolumeMenuItem_DrawStyle
  D:0098H         PUBLIC        SCON
  C:A0CFH         PUBLIC        VolumeMenu_TitelStr
  D:0088H         PUBLIC        TCON
  C:A57FH         PUBLIC        GetVolumeVal
  C:8A82H         SYMBOL        _?ix1000
  C:8A90H         PUBLIC        Gugae_Volume
  C:8A85H         PUBLIC        Number_Volume
  C:8A58H         PUBLIC        VolumeMenuStr
  D:00E8H         PUBLIC        EIE
  D:00F8H         PUBLIC        EIP
  D:00C0H         PUBLIC        SCON1
  D:00C8H         PUBLIC        T2CON
  C:9C62H         PUBLIC        _AdjustVolume
  D:00D8H         PUBLIC        EICON
  C:A5F2H         PUBLIC        ExectVolume
  D:00D0H         PUBLIC        PSW
  -------         PROC          VOLUMEMENU_TITELSTR
  C:A0CFH         LINE#         51
  C:A0CFH         LINE#         52
  C:A0CFH         LINE#         53
  C:A0EBH         LINE#         54
  -------         ENDPROC       VOLUMEMENU_TITELSTR
  -------         PROC          VOLUMEMENU_CHECKCONDITION
  -------         DO            
  X:0063H         SYMBOL        adjust
  -------         ENDDO         
  C:96BFH         LINE#         61
  C:96BFH         LINE#         62
  C:96BFH         LINE#         63
  C:96D2H         LINE#         65
  C:96DCH         LINE#         66
  C:96DCH         LINE#         67
  C:96E0H         LINE#         69
  C:96E2H         LINE#         71
  C:96E2H         LINE#         72
  C:96E6H         LINE#         74
  C:96E6H         LINE#         75
BL51 BANKED LINKER/LOCATER V6.22                                                      06/07/2020  11:08:23  PAGE 113


  C:96EEH         LINE#         76
  C:96F6H         LINE#         79
  C:96FCH         LINE#         80
  -------         ENDPROC       VOLUMEMENU_CHECKCONDITION
  -------         PROC          VOLUMEMENUITEM_DRAWSTYLE
  C:A4B9H         LINE#         85
  C:A4B9H         LINE#         86
  C:A4B9H         LINE#         88
  C:A4C3H         LINE#         89
  C:A4C4H         LINE#         90
  -------         ENDPROC       VOLUMEMENUITEM_DRAWSTYLE
  -------         PROC          GETVOLUMEVAL
  C:A57FH         LINE#         93
  C:A57FH         LINE#         94
  C:A57FH         LINE#         96
  C:A586H         LINE#         97
  -------         ENDPROC       GETVOLUMEVAL
  -------         PROC          _ADJUSTVOLUME
  D:0007H         SYMBOL        opratComd
  C:9C62H         LINE#         100
  C:9C62H         LINE#         101
  C:9C62H         LINE#         102
  C:9C6AH         LINE#         103
  C:9C6AH         LINE#         104
  C:9C73H         LINE#         105
  C:9C73H         LINE#         106
  C:9C76H         LINE#         107
  C:9C76H         LINE#         109
  C:9C76H         LINE#         110
  C:9C7EH         LINE#         111
  C:9C7EH         LINE#         113
  C:9C87H         LINE#         114
  C:9C87H         LINE#         115
  C:9C8AH         LINE#         116
  C:9C8AH         LINE#         118
  C:9C8AH         LINE#         119
  C:9C8BH         LINE#         120
  -------         ENDPROC       _ADJUSTVOLUME
  -------         PROC          EXECTVOLUME
  C:A5F2H         LINE#         123
  C:A5F2H         LINE#         124
  C:A5F2H         LINE#         132
  C:A5F3H         LINE#         133
  -------         ENDPROC       EXECTVOLUME
  -------         ENDMOD        OSD_VOLUMEMENU

  -------         MODULE        OSD_MODEMENU
  C:0000H         SYMBOL        _ICE_DUMMY_
  D:0080H         PUBLIC        P0
  D:0090H         PUBLIC        P1
  D:00A0H         PUBLIC        P2
  D:00B0H         PUBLIC        P3
  C:A513H         PUBLIC        ExectMode
  D:00A8H         PUBLIC        IE
  C:96FDH         PUBLIC        ModeMenu_CheckCondition
  D:00B8H         PUBLIC        IP
  D:0098H         PUBLIC        SCON
BL51 BANKED LINKER/LOCATER V6.22                                                      06/07/2020  11:08:23  PAGE 114


  D:0088H         PUBLIC        TCON
  C:A22CH         PUBLIC        ModeMenuItem_DrawStyle
  C:8664H         PUBLIC        ModeMenuItem_ModeTitelTab
  C:8659H         PUBLIC        ModeMenuItemVal_Mode
  C:A0ECH         PUBLIC        ModeMenu_TitelStr
  C:8642H         PUBLIC        ModeStr
  C:8648H         SYMBOL        _?ix1000
  C:A587H         PUBLIC        GetModeVal
  D:00E8H         PUBLIC        EIE
  C:9ECAH         PUBLIC        DispModeStr
  C:8618H         PUBLIC        ModeMenuStr
  D:00F8H         PUBLIC        EIP
  C:864BH         PUBLIC        Option_Mode
  D:00C0H         PUBLIC        SCON1
  D:00C8H         PUBLIC        T2CON
  D:00D8H         PUBLIC        EICON
  C:A05AH         PUBLIC        _AdjustMode
  D:00D0H         PUBLIC        PSW
  -------         PROC          MODEMENU_TITELSTR
  C:A0ECH         LINE#         60
  C:A0ECH         LINE#         61
  C:A0ECH         LINE#         62
  C:A108H         LINE#         63
  -------         ENDPROC       MODEMENU_TITELSTR
  -------         PROC          DISPMODESTR
  C:9ECAH         LINE#         66
  C:9ECAH         LINE#         67
  C:9ECAH         LINE#         68
  C:9EEBH         LINE#         69
  -------         ENDPROC       DISPMODESTR
  -------         PROC          MODEMENU_CHECKCONDITION
  -------         DO            
  X:0063H         SYMBOL        adjust
  -------         ENDDO         
  C:96FDH         LINE#         75
  C:96FDH         LINE#         76
  C:96FDH         LINE#         77
  C:9710H         LINE#         79
  C:971AH         LINE#         80
  C:971AH         LINE#         81
  C:971EH         LINE#         83
  C:9720H         LINE#         85
  C:9720H         LINE#         86
  C:9724H         LINE#         88
  C:9724H         LINE#         89
  C:972CH         LINE#         90
  C:9734H         LINE#         92
  C:973AH         LINE#         93
  -------         ENDPROC       MODEMENU_CHECKCONDITION
  -------         PROC          MODEMENUITEM_DRAWSTYLE
  C:A22CH         LINE#         99
  C:A22CH         LINE#         100
  C:A22CH         LINE#         102
  C:A236H         LINE#         103
  C:A242H         LINE#         104
  C:A243H         LINE#         105
  -------         ENDPROC       MODEMENUITEM_DRAWSTYLE
BL51 BANKED LINKER/LOCATER V6.22                                                      06/07/2020  11:08:23  PAGE 115


  -------         PROC          GETMODEVAL
  C:A587H         LINE#         108
  C:A587H         LINE#         109
  C:A587H         LINE#         111
  C:A58EH         LINE#         112
  -------         ENDPROC       GETMODEVAL
  -------         PROC          _ADJUSTMODE
  D:0007H         SYMBOL        opratComd
  C:A05AH         LINE#         115
  C:A05AH         LINE#         116
  C:A05AH         LINE#         117
  C:A067H         LINE#         118
  C:A067H         LINE#         119
  C:A076H         LINE#         121
  C:A076H         LINE#         122
  C:A077H         LINE#         123
  -------         ENDPROC       _ADJUSTMODE
  -------         PROC          EXECTMODE
  C:A513H         LINE#         126
  C:A513H         LINE#         127
  C:A513H         LINE#         128
  C:A51BH         LINE#         129
  C:A51CH         LINE#         130
  -------         ENDPROC       EXECTMODE
  -------         ENDMOD        OSD_MODEMENU

  -------         MODULE        OSD_SYSMENU
  C:0000H         SYMBOL        _ICE_DUMMY_
  D:0080H         PUBLIC        P0
  D:0090H         PUBLIC        P1
  D:00A0H         PUBLIC        P2
  D:00B0H         PUBLIC        P3
  C:A58FH         PUBLIC        GetSysVal
  D:00A8H         PUBLIC        IE
  C:9EECH         PUBLIC        DispSysStr
  C:79F0H         PUBLIC        SysMenuStr
  D:00B8H         PUBLIC        IP
  C:7A29H         PUBLIC        Option_Sys
  C:7A42H         PUBLIC        SysMenuItem_SysTitelTab
  C:97B6H         PUBLIC        _AdjustSys
  C:7A37H         PUBLIC        SysMenuItemVal_Sys
  D:0098H         PUBLIC        SCON
  D:0088H         PUBLIC        TCON
  C:A5E0H         PUBLIC        ExectSys
  C:7A26H         SYMBOL        _?ix1000
  C:973BH         PUBLIC        SysMenu_CheckCondition
  D:00E8H         PUBLIC        EIE
  D:00F8H         PUBLIC        EIP
  D:00C0H         PUBLIC        SCON1
  D:00C8H         PUBLIC        T2CON
  D:00D8H         PUBLIC        EICON
  C:A244H         PUBLIC        SysMenuItem_DrawStyle
  C:A109H         PUBLIC        SysMenu_TitelStr
  D:00D0H         PUBLIC        PSW
  C:7A1AH         PUBLIC        SysStr
  -------         PROC          SYSMENU_TITELSTR
  C:A109H         LINE#         60
BL51 BANKED LINKER/LOCATER V6.22                                                      06/07/2020  11:08:23  PAGE 116


  C:A109H         LINE#         61
  C:A109H         LINE#         62
  C:A125H         LINE#         63
  -------         ENDPROC       SYSMENU_TITELSTR
  -------         PROC          DISPSYSSTR
  C:9EECH         LINE#         67
  C:9EECH         LINE#         68
  C:9EECH         LINE#         69
  C:9F0DH         LINE#         70
  -------         ENDPROC       DISPSYSSTR
  -------         PROC          SYSMENU_CHECKCONDITION
  -------         DO            
  X:0063H         SYMBOL        adjust
  -------         ENDDO         
  C:973BH         LINE#         77
  C:973BH         LINE#         78
  C:973BH         LINE#         79
  C:974EH         LINE#         80
  C:9758H         LINE#         81
  C:9758H         LINE#         82
  C:975CH         LINE#         84
  C:975EH         LINE#         86
  C:975EH         LINE#         87
  C:9762H         LINE#         89
  C:9762H         LINE#         90
  C:976AH         LINE#         91
  C:9772H         LINE#         93
  C:9778H         LINE#         94
  -------         ENDPROC       SYSMENU_CHECKCONDITION
  -------         PROC          SYSMENUITEM_DRAWSTYLE
  C:A244H         LINE#         97
  C:A244H         LINE#         98
  C:A244H         LINE#         100
  C:A24EH         LINE#         101
  C:A25AH         LINE#         102
  C:A25BH         LINE#         103
  -------         ENDPROC       SYSMENUITEM_DRAWSTYLE
  -------         PROC          GETSYSVAL
  C:A58FH         LINE#         106
  C:A58FH         LINE#         107
  C:A58FH         LINE#         109
  C:A596H         LINE#         110
  -------         ENDPROC       GETSYSVAL
  -------         PROC          _ADJUSTSYS
  D:0007H         SYMBOL        opratComd
  C:97B6H         LINE#         113
  C:97B6H         LINE#         114
  C:97B6H         LINE#         115
  C:97C3H         LINE#         116
  C:97C3H         LINE#         117
  C:97D4H         LINE#         118
  C:97D4H         LINE#         119
  C:97D4H         LINE#         120
  C:97DAH         LINE#         121
  C:97DCH         LINE#         123
  C:97DCH         LINE#         124
  C:97E2H         LINE#         125
BL51 BANKED LINKER/LOCATER V6.22                                                      06/07/2020  11:08:23  PAGE 117


  C:97E4H         LINE#         127
  C:97E4H         LINE#         128
  C:97EAH         LINE#         129
  C:97ECH         LINE#         131
  C:97ECH         LINE#         135
  C:97ECH         LINE#         136
  C:97F1H         LINE#         137
  C:97F1H         LINE#         138
  C:97F1H         LINE#         140
  C:97F1H         LINE#         141
  C:97F2H         LINE#         142
  -------         ENDPROC       _ADJUSTSYS
  -------         PROC          EXECTSYS
  C:A5E0H         LINE#         145
  C:A5E0H         LINE#         146
  C:A5E0H         LINE#         147
  C:A5E3H         LINE#         148
  C:A5E4H         LINE#         149
  -------         ENDPROC       EXECTSYS
  -------         ENDMOD        OSD_SYSMENU

  -------         MODULE        OSD_LANGUAGEMENU
  C:0000H         SYMBOL        _ICE_DUMMY_
  D:0080H         PUBLIC        P0
  D:0090H         PUBLIC        P1
  D:00A0H         PUBLIC        P2
  D:00B0H         PUBLIC        P3
  D:00A8H         PUBLIC        IE
  C:99BCH         PUBLIC        _AdjustLanguage
  D:00B8H         PUBLIC        IP
  C:9279H         PUBLIC        ExectLanguage
  C:9FF9H         PUBLIC        LanguageMenu_CheckCondition
  D:0098H         PUBLIC        SCON
  D:0088H         PUBLIC        TCON
  C:64BFH         SYMBOL        _?ix1000
  D:00E8H         PUBLIC        EIE
  C:A25CH         PUBLIC        LanguageMenuItem_DrawStyle
  D:00F8H         PUBLIC        EIP
  C:9F0EH         PUBLIC        LanguageMenu_TitelStr
  C:6495H         PUBLIC        LanguageStr
  D:00C0H         PUBLIC        SCON1
  D:00C8H         PUBLIC        T2CON
  D:00D8H         PUBLIC        EICON
  C:A597H         PUBLIC        GetLanguageVal
  C:9F30H         PUBLIC        DispLanguageStr
  D:00D0H         PUBLIC        PSW
  C:646BH         PUBLIC        LanguageMenuStr
  C:64C2H         PUBLIC        LanguageMenuItem_LanguageTitelTab
  -------         PROC          LANGUAGEMENU_TITELSTR
  C:9F0EH         LINE#         73
  C:9F0EH         LINE#         74
  C:9F0EH         LINE#         75
  C:9F2FH         LINE#         76
  -------         ENDPROC       LANGUAGEMENU_TITELSTR
  -------         PROC          DISPLANGUAGESTR
  C:9F30H         LINE#         79
  C:9F30H         LINE#         80
BL51 BANKED LINKER/LOCATER V6.22                                                      06/07/2020  11:08:23  PAGE 118


  C:9F30H         LINE#         81
  C:9F51H         LINE#         82
  -------         ENDPROC       DISPLANGUAGESTR
  -------         PROC          LANGUAGEMENU_CHECKCONDITION
  -------         DO            
  X:0063H         SYMBOL        adjust
  -------         ENDDO         
  C:9FF9H         LINE#         89
  C:9FF9H         LINE#         90
  C:9FF9H         LINE#         91
  C:A00CH         LINE#         92
  C:A013H         LINE#         94
  C:A019H         LINE#         95
  -------         ENDPROC       LANGUAGEMENU_CHECKCONDITION
  -------         PROC          LANGUAGEMENUITEM_DRAWSTYLE
  C:A25CH         LINE#         101
  C:A25CH         LINE#         102
  C:A25CH         LINE#         104
  C:A266H         LINE#         105
  C:A272H         LINE#         106
  C:A273H         LINE#         107
  -------         ENDPROC       LANGUAGEMENUITEM_DRAWSTYLE
  -------         PROC          GETLANGUAGEVAL
  C:A597H         LINE#         110
  C:A597H         LINE#         111
  C:A597H         LINE#         113
  C:A59EH         LINE#         114
  -------         ENDPROC       GETLANGUAGEVAL
  -------         PROC          _ADJUSTLANGUAGE
  D:0007H         SYMBOL        opratComd
  C:99BCH         LINE#         117
  C:99BCH         LINE#         118
  C:99BCH         LINE#         119
  C:99BFH         LINE#         120
  C:99BFH         LINE#         121
  C:99C8H         LINE#         122
  C:99C8H         LINE#         123
  C:99CBH         LINE#         124
  C:99CDH         LINE#         126
  C:99CDH         LINE#         127
  C:99D2H         LINE#         128
  C:99D2H         LINE#         130
  C:99D2H         LINE#         131
  C:99D5H         LINE#         132
  C:99D5H         LINE#         133
  C:99DEH         LINE#         134
  C:99DEH         LINE#         135
  C:99E1H         LINE#         136
  C:99E3H         LINE#         138
  C:99E3H         LINE#         139
  C:99E9H         LINE#         140
  C:99E9H         LINE#         142
  C:99E9H         LINE#         143
  C:99EAH         LINE#         144
  -------         ENDPROC       _ADJUSTLANGUAGE
  -------         PROC          EXECTLANGUAGE
  C:9279H         LINE#         147
BL51 BANKED LINKER/LOCATER V6.22                                                      06/07/2020  11:08:23  PAGE 119


  C:9279H         LINE#         148
  C:9279H         LINE#         150
  C:9283H         LINE#         151
  C:928FH         LINE#         152
  C:92CDH         LINE#         153
  C:92CEH         LINE#         154
  -------         ENDPROC       EXECTLANGUAGE
  -------         ENDMOD        OSD_LANGUAGEMENU

  -------         MODULE        OSD_IRABMENU
  C:0000H         SYMBOL        _ICE_DUMMY_
  D:0080H         PUBLIC        P0
  D:0090H         PUBLIC        P1
  D:00A0H         PUBLIC        P2
  D:00B0H         PUBLIC        P3
  D:00A8H         PUBLIC        IE
  C:9C8CH         PUBLIC        _AdjustIRAB
  D:00B8H         PUBLIC        IP
  C:A5F4H         PUBLIC        ExectIRAB
  C:9A76H         PUBLIC        IRABMenu_CheckCondition
  D:0098H         PUBLIC        SCON
  D:0088H         PUBLIC        TCON
  C:8990H         SYMBOL        _?ix1000
  C:A274H         PUBLIC        IRABMenuItem_DrawStyle
  D:00E8H         PUBLIC        EIE
  C:A126H         PUBLIC        IRABMenu_TitelStr
  C:8987H         PUBLIC        IRABStr
  D:00F8H         PUBLIC        EIP
  D:00C0H         PUBLIC        SCON1
  C:A59FH         PUBLIC        GetIRABVal
  D:00C8H         PUBLIC        T2CON
  C:89ACH         PUBLIC        IRABMenuItem_IRABTitelTab
  C:9F52H         PUBLIC        DispIRABStr
  C:89A1H         PUBLIC        IRABMenuItemVal_IRAB
  D:00D8H         PUBLIC        EICON
  C:8960H         PUBLIC        IRABMenuStr
  D:00D0H         PUBLIC        PSW
  C:8993H         PUBLIC        Option_IRAB
  -------         PROC          IRABMENU_TITELSTR
  C:A126H         LINE#         58
  C:A126H         LINE#         59
  C:A126H         LINE#         60
  C:A142H         LINE#         61
  -------         ENDPROC       IRABMENU_TITELSTR
  -------         PROC          DISPIRABSTR
  C:9F52H         LINE#         63
  C:9F52H         LINE#         64
  C:9F52H         LINE#         65
  C:9F73H         LINE#         66
  -------         ENDPROC       DISPIRABSTR
  -------         PROC          IRABMENU_CHECKCONDITION
  -------         DO            
  X:0063H         SYMBOL        adjust
  -------         ENDDO         
  C:9A76H         LINE#         73
  C:9A76H         LINE#         74
  C:9A76H         LINE#         75
BL51 BANKED LINKER/LOCATER V6.22                                                      06/07/2020  11:08:23  PAGE 120


  C:9A89H         LINE#         77
  C:9A93H         LINE#         78
  C:9A93H         LINE#         79
  C:9A97H         LINE#         81
  C:9A99H         LINE#         83
  C:9A99H         LINE#         84
  C:9A9DH         LINE#         86
  C:9A9DH         LINE#         88
  C:9AA3H         LINE#         89
  -------         ENDPROC       IRABMENU_CHECKCONDITION
  -------         PROC          GETIRABVAL
  C:A59FH         LINE#         93
  C:A59FH         LINE#         94
  C:A59FH         LINE#         96
  C:A5A6H         LINE#         97
  -------         ENDPROC       GETIRABVAL
  -------         PROC          IRABMENUITEM_DRAWSTYLE
  C:A274H         LINE#         103
  C:A274H         LINE#         104
  C:A274H         LINE#         106
  C:A27EH         LINE#         107
  C:A28AH         LINE#         108
  C:A28BH         LINE#         109
  -------         ENDPROC       IRABMENUITEM_DRAWSTYLE
  -------         PROC          _ADJUSTIRAB
  D:0007H         SYMBOL        opratComd
  C:9C8CH         LINE#         112
  C:9C8CH         LINE#         113
  C:9C8CH         LINE#         115
  C:9C94H         LINE#         116
  C:9C94H         LINE#         117
  C:9C9BH         LINE#         118
  C:9C9BH         LINE#         119
  C:9C9DH         LINE#         120
  C:9C9FH         LINE#         121
  C:9CA3H         LINE#         122
  C:9CA3H         LINE#         123
  C:9CA9H         LINE#         124
  C:9CABH         LINE#         125
  C:9CAFH         LINE#         126
  C:9CAFH         LINE#         127
  C:9CB4H         LINE#         128
  C:9CB4H         LINE#         130
  C:9CB4H         LINE#         131
  C:9CB5H         LINE#         132
  -------         ENDPROC       _ADJUSTIRAB
  -------         PROC          EXECTIRAB
  C:A5F4H         LINE#         135
  C:A5F4H         LINE#         136
  C:A5F4H         LINE#         141
  C:A5F5H         LINE#         142
  -------         ENDPROC       EXECTIRAB
  -------         ENDMOD        OSD_IRABMENU

  -------         MODULE        OSD_RADIOFREQMENU
  C:0000H         SYMBOL        _ICE_DUMMY_
  C:A5F6H         PUBLIC        ExectRadioFreq
BL51 BANKED LINKER/LOCATER V6.22                                                      06/07/2020  11:08:23  PAGE 121


  D:0080H         PUBLIC        P0
  D:0090H         PUBLIC        P1
  D:00A0H         PUBLIC        P2
  D:00B0H         PUBLIC        P3
  C:9AA4H         PUBLIC        RadioFreqMenu_CheckCondition
  D:00A8H         PUBLIC        IE
  D:00B8H         PUBLIC        IP
  C:7BACH         PUBLIC        RadioFreqMenuItem_RadioFreqTitelTab
  C:A28CH         PUBLIC        RadioFreqMenuItem_DrawStyle
  D:0098H         PUBLIC        SCON
  D:0088H         PUBLIC        TCON
  C:7BA1H         PUBLIC        RadioFreqMenuItemVal_RadioFreq
  C:A143H         PUBLIC        RadioFreqMenu_TitelStr
  C:7B75H         PUBLIC        RadioFreqStr
  C:7B90H         SYMBOL        _?ix1000
  C:A5A7H         PUBLIC        GetRadioFreqVal
  C:9F74H         PUBLIC        DispRadioFreqStr
  D:00E8H         PUBLIC        EIE
  C:7B4EH         PUBLIC        RadioFreqMenuStr
  D:00F8H         PUBLIC        EIP
  C:7B93H         PUBLIC        Option_RadioFreq
  D:00C0H         PUBLIC        SCON1
  D:00C8H         PUBLIC        T2CON
  D:00D8H         PUBLIC        EICON
  C:99EBH         PUBLIC        _AdjustRadioFreq
  D:00D0H         PUBLIC        PSW
  -------         PROC          RADIOFREQMENU_TITELSTR
  C:A143H         LINE#         65
  C:A143H         LINE#         66
  C:A143H         LINE#         67
  C:A15FH         LINE#         68
  -------         ENDPROC       RADIOFREQMENU_TITELSTR
  -------         PROC          DISPRADIOFREQSTR
  C:9F74H         LINE#         71
  C:9F74H         LINE#         72
  C:9F74H         LINE#         73
  C:9F95H         LINE#         74
  -------         ENDPROC       DISPRADIOFREQSTR
  -------         PROC          RADIOFREQMENU_CHECKCONDITION
  -------         DO            
  X:0063H         SYMBOL        adjust
  -------         ENDDO         
  C:9AA4H         LINE#         81
  C:9AA4H         LINE#         82
  C:9AA4H         LINE#         83
  C:9AB7H         LINE#         85
  C:9AC1H         LINE#         86
  C:9AC1H         LINE#         87
  C:9AC5H         LINE#         89
  C:9AC7H         LINE#         91
  C:9AC7H         LINE#         92
  C:9ACBH         LINE#         94
  C:9ACBH         LINE#         97
  C:9AD1H         LINE#         98
  -------         ENDPROC       RADIOFREQMENU_CHECKCONDITION
  -------         PROC          GETRADIOFREQVAL
  C:A5A7H         LINE#         102
BL51 BANKED LINKER/LOCATER V6.22                                                      06/07/2020  11:08:23  PAGE 122


  C:A5A7H         LINE#         103
  C:A5A7H         LINE#         105
  C:A5AEH         LINE#         106
  -------         ENDPROC       GETRADIOFREQVAL
  -------         PROC          RADIOFREQMENUITEM_DRAWSTYLE
  C:A28CH         LINE#         112
  C:A28CH         LINE#         113
  C:A28CH         LINE#         115
  C:A296H         LINE#         116
  C:A2A2H         LINE#         117
  C:A2A3H         LINE#         118
  -------         ENDPROC       RADIOFREQMENUITEM_DRAWSTYLE
  -------         PROC          _ADJUSTRADIOFREQ
  D:0007H         SYMBOL        opratComd
  C:99EBH         LINE#         121
  C:99EBH         LINE#         122
  C:99EBH         LINE#         124
  C:99EEH         LINE#         125
  C:99EEH         LINE#         126
  C:99F7H         LINE#         127
  C:99F7H         LINE#         128
  C:99FAH         LINE#         129
  C:99FCH         LINE#         131
  C:99FCH         LINE#         132
  C:9A01H         LINE#         133
  C:9A01H         LINE#         134
  C:9A01H         LINE#         135
  C:9A04H         LINE#         136
  C:9A04H         LINE#         138
  C:9A0DH         LINE#         139
  C:9A0DH         LINE#         140
  C:9A10H         LINE#         141
  C:9A12H         LINE#         143
  C:9A12H         LINE#         144
  C:9A18H         LINE#         145
  C:9A18H         LINE#         146
  C:9A18H         LINE#         148
  C:9A19H         LINE#         149
  -------         ENDPROC       _ADJUSTRADIOFREQ
  -------         PROC          EXECTRADIOFREQ
  C:A5F6H         LINE#         152
  C:A5F6H         LINE#         153
  C:A5F6H         LINE#         199
  C:A5F7H         LINE#         200
  -------         ENDPROC       EXECTRADIOFREQ
  -------         ENDMOD        OSD_RADIOFREQMENU

  -------         MODULE        OSD_RESETMENU
  C:0000H         SYMBOL        _ICE_DUMMY_
  D:0080H         PUBLIC        P0
  D:0090H         PUBLIC        P1
  D:00A0H         PUBLIC        P2
  C:9C0CH         PUBLIC        ExectReset
  D:00B0H         PUBLIC        P3
  C:9AD2H         PUBLIC        ResetMenu_CheckCondition
  D:00A8H         PUBLIC        IE
  D:00B8H         PUBLIC        IP
BL51 BANKED LINKER/LOCATER V6.22                                                      06/07/2020  11:08:23  PAGE 123


  D:0098H         PUBLIC        SCON
  D:0088H         PUBLIC        TCON
  C:A2A4H         PUBLIC        ResetMenuItem_DrawStyle
  C:86E9H         PUBLIC        ResetMenuItemVal_Reset
  C:A160H         PUBLIC        ResetMenu_TitelStr
  C:86D5H         PUBLIC        ResetStr
  C:86D8H         SYMBOL        _?ix1000
  D:00E8H         PUBLIC        EIE
  C:A41CH         PUBLIC        DispResetStr
  C:86ABH         PUBLIC        ResetMenuStr
  C:86F4H         PUBLIC        ResetMenuItem_LanguageTitelTab
  D:00F8H         PUBLIC        EIP
  C:86DBH         PUBLIC        Option_Reset
  D:00C0H         PUBLIC        SCON1
  D:00C8H         PUBLIC        T2CON
  D:00D8H         PUBLIC        EICON
  D:00D0H         PUBLIC        PSW
  -------         PROC          RESETMENU_TITELSTR
  C:A160H         LINE#         56
  C:A160H         LINE#         57
  C:A160H         LINE#         58
  C:A17CH         LINE#         59
  -------         ENDPROC       RESETMENU_TITELSTR
  -------         PROC          DISPRESETSTR
  C:A41CH         LINE#         62
  C:A41CH         LINE#         63
  C:A41CH         LINE#         64
  C:A42AH         LINE#         65
  -------         ENDPROC       DISPRESETSTR
  -------         PROC          RESETMENU_CHECKCONDITION
  -------         DO            
  X:0063H         SYMBOL        adjust
  -------         ENDDO         
  C:9AD2H         LINE#         71
  C:9AD2H         LINE#         72
  C:9AD2H         LINE#         73
  C:9AE5H         LINE#         75
  C:9AEFH         LINE#         76
  C:9AEFH         LINE#         77
  C:9AF3H         LINE#         79
  C:9AF5H         LINE#         81
  C:9AF5H         LINE#         82
  C:9AF9H         LINE#         84
  C:9AF9H         LINE#         86
  C:9AFFH         LINE#         87
  -------         ENDPROC       RESETMENU_CHECKCONDITION
  -------         PROC          RESETMENUITEM_DRAWSTYLE
  C:A2A4H         LINE#         91
  C:A2A4H         LINE#         92
  C:A2A4H         LINE#         94
  C:A2AEH         LINE#         95
  C:A2BAH         LINE#         96
  C:A2BBH         LINE#         97
  -------         ENDPROC       RESETMENUITEM_DRAWSTYLE
  -------         PROC          EXECTRESET
  C:9C0CH         LINE#         101
  C:9C0CH         LINE#         102
BL51 BANKED LINKER/LOCATER V6.22                                                      06/07/2020  11:08:23  PAGE 124


  C:9C0CH         LINE#         104
  C:9C12H         LINE#         105
  C:9C16H         LINE#         106
  C:9C1AH         LINE#         107
  C:9C1EH         LINE#         108
  C:9C22H         LINE#         109
  C:9C27H         LINE#         110
  C:9C2BH         LINE#         111
  C:9C33H         LINE#         112
  C:9C36H         LINE#         113
  C:9C37H         LINE#         114
  -------         ENDPROC       EXECTRESET
  -------         ENDMOD        OSD_RESETMENU

  -------         MODULE        OSD_MENU
  C:0000H         SYMBOL        _ICE_DUMMY_
  C:A5CCH         PUBLIC        LOGO4LogoMenu_Icon
  C:A5D3H         PUBLIC        LOGO5LogoMenu_Icon
  D:0080H         PUBLIC        P0
  D:0090H         PUBLIC        P1
  C:3883H         PUBLIC        RootMenuItem_KeyComdMap
  C:26BEH         PUBLIC        _ExectComd
  D:00A0H         PUBLIC        P2
  D:00B0H         PUBLIC        P3
  C:3917H         PUBLIC        LanguageMenuItem_KeyComdMap
  C:3CFEH         PUBLIC        QuicklyModeMenu
  C:3C98H         PUBLIC        QuicklyVolumeMenu_ItemTab
  C:4E0FH         PUBLIC        ConfigOsdBlockStarIndexAddr
  C:38D3H         PUBLIC        SaturationMenuItem_KeyComdMap
  D:00A8H         PUBLIC        IE
  C:3CDEH         PUBLIC        QuicklyModeMenu_ItemTab
  C:3F74H         PUBLIC        VolumeMenu
  C:A5AFH         PUBLIC        HideMenu
  C:3AFBH         PUBLIC        LOGO1LogoMenu_IconTab
  C:3B08H         PUBLIC        LOGO2LogoMenu_IconTab
  C:3B15H         PUBLIC        LOGO3LogoMenu_IconTab
  C:9576H         PUBLIC        _FindMenuPageIndex
  C:571FH         PUBLIC        DrawSpecialOsdMenu
  C:3B22H         PUBLIC        LOGO4LogoMenu_IconTab
  C:5B07H         PUBLIC        _FindComdInCurMenuItem
  C:3B2FH         PUBLIC        LOGO5LogoMenu_IconTab
  D:00B8H         PUBLIC        IP
  C:A448H         PUBLIC        ResetMenuIndex
  C:40D2H         PUBLIC        RadioFreqMenu
  C:398FH         PUBLIC        LOGO1LogoMenuIcon
  C:390BH         PUBLIC        SysMenuItem_KeyComdMap
  C:3B06H         PUBLIC        LOGO2LogoMenuIcon
  C:3B13H         PUBLIC        LOGO3LogoMenuIcon
  C:4118H         PUBLIC        ResetMenu
  C:3F54H         PUBLIC        VolumeMenu_ItemTab
  C:3B20H         PUBLIC        LOGO4LogoMenuIcon
  C:3FBAH         PUBLIC        ModeMenu
  C:3B2DH         PUBLIC        LOGO5LogoMenuIcon
  C:3D8AH         PUBLIC        QuicklyBrightnessMenu
  X:009EH         PUBLIC        g_ucFactoryMenuItemIndex
  C:40B2H         PUBLIC        RadioFreqMenu_ItemTab
  C:92CFH         PUBLIC        _MenuProcessKey
BL51 BANKED LINKER/LOCATER V6.22                                                      06/07/2020  11:08:23  PAGE 125


  C:40F8H         PUBLIC        ResetMenu_ItemTab
  C:3F9AH         PUBLIC        ModeMenu_ItemTab
  C:3D6AH         PUBLIC        QuicklyBrightnessMenu_ItemTab
  C:A5EBH         PUBLIC        InitOsdBlock
  C:3977H         PUBLIC        FactorySwitchMenuItem_KeyComdMap
  C:38C7H         PUBLIC        ContrastMenuItem_KeyComdMap
  C:3C72H         PUBLIC        QuickyMuteMenu
  C:3E16H         PUBLIC        QuicklySaturationMenu
  X:009FH         PUBLIC        g_ucMenuPageIndex
  D:0098H         PUBLIC        SCON
  D:0088H         PUBLIC        TCON
  C:408CH         PUBLIC        IRABMenu
  C:3947H         PUBLIC        FactoryMenuItem_KeyComdMap
  C:3E5CH         PUBLIC        BrightnessMenu
  C:8C1BH         PUBLIC        _KeyMsgProcess
  C:3F2EH         PUBLIC        TintMenu
  C:3C52H         PUBLIC        QuickyMuteMenu_ItemTab
  C:3DF6H         PUBLIC        QuicklySaturationMenu_ItemTab
  C:3BE6H         PUBLIC        RootMenu
  C:62A6H         PUBLIC        _?DrawOsdTitel
  C:3D44H         PUBLIC        QuicklySysMenu
  C:4046H         PUBLIC        LanguageMenu
  C:A199H         PUBLIC        _SetMenuIndex
  C:406CH         PUBLIC        IRABMenu_ItemTab
  C:3E3CH         PUBLIC        BrightnessMenu_ItemTab
  C:7077H         PUBLIC        _DrawOsdIcon
  C:3F0EH         PUBLIC        TintMenu_ItemTab
  C:3B5AH         PUBLIC        PowerOffMenu
  X:00A0H         PUBLIC        g_ucMenuItemIndex
  C:3BC6H         PUBLIC        RootMenu_ItemTab
  C:38B7H         PUBLIC        BTCallerMenuItem_KeyComdMap
  C:3EE8H         PUBLIC        SaturationMenu
  C:3D24H         PUBLIC        QuicklySysMenu_ItemTab
  C:4026H         PUBLIC        LanguageMenu_ItemTab
  C:84BFH         PUBLIC        _DrawOsdMenuItemGuage
  C:413EH         PUBLIC        tblMenus
  C:7532H         PUBLIC        _DrawOsdMenuItemNumber
  C:3B3AH         PUBLIC        PowerOffMenu_ItemTab
  C:548BH         PUBLIC        DrawOsdMenu
  C:3DD0H         PUBLIC        QuicklyContrastMenu
  C:6BE5H         PUBLIC        GetPrevItem
  D:00E8H         PUBLIC        EIE
  C:3EC8H         PUBLIC        SaturationMenu_ItemTab
  C:73A0H         PUBLIC        GetNextItem
  C:395FH         PUBLIC        FactoryPicMenuItem_KeyComdMap
  C:38EBH         PUBLIC        VolumeMenuItem_KeyComdMap
  C:4000H         PUBLIC        SysMenu
  C:6AF9H         PUBLIC        GetNextMenu
  C:3DB0H         PUBLIC        QuicklyContrastMenu_ItemTab
  C:392FH         PUBLIC        RadioFreqMenuItem_KeyComdMap
  D:00F8H         PUBLIC        EIP
  C:878EH         PUBLIC        _DrawOsdMenuItemOption
  C:393BH         PUBLIC        ResetMenuItem_KeyComdMap
  C:38FFH         PUBLIC        ModeMenuItem_KeyComdMap
  C:5C90H         PUBLIC        _?DrawOsdMenuItem
  C:6CD0H         PUBLIC        GetPreMenu
  C:3FE0H         PUBLIC        SysMenu_ItemTab
BL51 BANKED LINKER/LOCATER V6.22                                                      06/07/2020  11:08:23  PAGE 126


  C:730AH         PUBLIC        _DrawOsdMenuItemValue
  D:00C0H         PUBLIC        SCON1
  C:3BA0H         PUBLIC        PowerOnMenu
  D:00C8H         PUBLIC        T2CON
  C:3EA2H         PUBLIC        ContrastMenu
  C:3C0CH         PUBLIC        QuicklySourceMenu_ItemTabl
  D:00D8H         PUBLIC        EICON
  C:3B80H         PUBLIC        PowerOnMenu_ItemTab
  C:3C2CH         PUBLIC        QuicklySourceMenu
  C:3E82H         PUBLIC        ContrastMenu_ItemTab
  C:3923H         PUBLIC        IRABMenuItem_KeyComdMap
  D:00D0H         PUBLIC        PSW
  C:3CB8H         PUBLIC        QuicklyVolumeMenu
  C:A5B7H         PUBLIC        LOGO1LogoMenu_Icon
  C:38BBH         PUBLIC        BrightnessMenuItem_KeyComdMap
  C:A5BEH         PUBLIC        LOGO2LogoMenu_Icon
  C:38DFH         PUBLIC        TintMenuItem_KeyComdMap
  C:A5C5H         PUBLIC        LOGO3LogoMenu_Icon
  C:8F21H         PUBLIC        InitOSD
  -------         PROC          LOGO1LOGOMENU_ICON
  C:A5B7H         LINE#         12
  C:A5B7H         LINE#         13
  C:A5B7H         LINE#         14
  C:A5BDH         LINE#         15
  -------         ENDPROC       LOGO1LOGOMENU_ICON
  -------         PROC          LOGO2LOGOMENU_ICON
  C:A5BEH         LINE#         24
  C:A5BEH         LINE#         25
  C:A5BEH         LINE#         26
  C:A5C4H         LINE#         27
  -------         ENDPROC       LOGO2LOGOMENU_ICON
  -------         PROC          LOGO3LOGOMENU_ICON
  C:A5C5H         LINE#         36
  C:A5C5H         LINE#         37
  C:A5C5H         LINE#         38
  C:A5CBH         LINE#         39
  -------         ENDPROC       LOGO3LOGOMENU_ICON
  -------         PROC          LOGO4LOGOMENU_ICON
  C:A5CCH         LINE#         48
  C:A5CCH         LINE#         49
  C:A5CCH         LINE#         50
  C:A5D2H         LINE#         51
  -------         ENDPROC       LOGO4LOGOMENU_ICON
  -------         PROC          LOGO5LOGOMENU_ICON
  C:A5D3H         LINE#         60
  C:A5D3H         LINE#         61
  C:A5D3H         LINE#         62
  C:A5D9H         LINE#         63
  -------         ENDPROC       LOGO5LOGOMENU_ICON
  -------         PROC          _KEYMSGPROCESS
  D:0007H         SYMBOL        curMsg
  -------         DO            
  D:0006H         SYMBOL        ucComd
  -------         ENDDO         
  C:8C1BH         LINE#         31
  C:8C1BH         LINE#         32
  C:8C1BH         LINE#         33
BL51 BANKED LINKER/LOCATER V6.22                                                      06/07/2020  11:08:23  PAGE 127


  C:8C1DH         LINE#         35
  C:8C57H         LINE#         36
  C:8C57H         LINE#         37
  C:8C57H         LINE#         39
  C:8C59H         LINE#         53
  C:8C5BH         LINE#         55
  C:8C5BH         LINE#         73
  C:8C5BH         LINE#         91
  C:8C5BH         LINE#         109
  C:8C5BH         LINE#         125
  C:8C5BH         LINE#         127
  C:8C5BH         LINE#         145
  C:8C5BH         LINE#         163
  C:8C5BH         LINE#         181
  C:8C5BH         LINE#         183
  C:8C5DH         LINE#         197
  C:8C5FH         LINE#         199
  C:8C5FH         LINE#         217
  C:8C5FH         LINE#         235
  C:8C5FH         LINE#         253
  C:8C5FH         LINE#         255
  C:8C61H         LINE#         257
  C:8C67H         LINE#         258
  C:8C67H         LINE#         259
  C:8C69H         LINE#         260
  C:8C69H         LINE#         274
  C:8C69H         LINE#         276
  C:8C69H         LINE#         278
  C:8C6BH         LINE#         293
  C:8C78H         LINE#         294
  C:8C78H         LINE#         295
  C:8C7BH         LINE#         296
  C:8C7BH         LINE#         297
  C:8C7BH         LINE#         299
  C:8C7BH         LINE#         301
  C:8C7DH         LINE#         313
  C:8C8AH         LINE#         314
  C:8C8AH         LINE#         315
  C:8C8DH         LINE#         316
  C:8C8DH         LINE#         317
  C:8C8DH         LINE#         319
  C:8C8DH         LINE#         320
  C:8C8DH         LINE#         321
  C:8C8DH         LINE#         324
  C:8C90H         LINE#         325
  C:8C90H         LINE#         326
  -------         ENDPROC       _KEYMSGPROCESS
  -------         PROC          _FINDCOMDINCURMENUITEM
  D:0028H         SYMBOL        curMsg
  -------         DO            
  X:0058H         SYMBOL        ucComd
  X:0059H         SYMBOL        ucIndex
  C:5B0EH         SYMBOL        FindComdAgain
  -------         ENDDO         
  C:5B07H         LINE#         340
  C:5B09H         LINE#         341
  C:5B09H         LINE#         342
BL51 BANKED LINKER/LOCATER V6.22                                                      06/07/2020  11:08:23  PAGE 128


  C:5B0EH         LINE#         347
  C:5B0EH         LINE#         349
  C:5B55H         LINE#         350
  C:5B55H         LINE#         351
  C:5B8BH         LINE#         352
  C:5B8BH         LINE#         353
  C:5BDBH         LINE#         354
  C:5BDBH         LINE#         355
  C:5C22H         LINE#         356
  C:5C23H         LINE#         357
  C:5C23H         LINE#         359
  C:5C23H         LINE#         360
  C:5C2FH         LINE#         361
  C:5C2FH         LINE#         362
  C:5C31H         LINE#         363
  C:5C31H         LINE#         365
  C:5C31H         LINE#         366
  C:5C34H         LINE#         367
  C:5C34H         LINE#         368
  C:5C34H         LINE#         369
  C:5C34H         LINE#         370
  C:5C3DH         LINE#         372
  C:5C49H         LINE#         373
  C:5C49H         LINE#         374
  C:5C53H         LINE#         375
  C:5C56H         LINE#         376
  C:5C59H         LINE#         377
  C:5C59H         LINE#         378
  C:5C5BH         LINE#         379
  -------         ENDPROC       _FINDCOMDINCURMENUITEM
  -------         PROC          _EXECTCOMD
  D:0029H         SYMBOL        OpratComd
  -------         DO            
  B:0022H.3       SYMBOL        OpratComdFlg
  -------         ENDDO         
  C:26BEH         LINE#         382
  C:26C0H         LINE#         383
  C:26C0H         LINE#         384
  C:26C2H         LINE#         386
  C:26C8H         LINE#         387
  C:26C8H         LINE#         388
  C:26CAH         LINE#         390
  C:273FH         LINE#         391
  C:273FH         LINE#         392
  C:273FH         LINE#         393
  C:273FH         LINE#         394
  C:277CH         LINE#         395
  C:277CH         LINE#         396
  C:27B5H         LINE#         397
  C:27B5H         LINE#         398
  C:27B8H         LINE#         399
  C:27B8H         LINE#         400
  C:27B8H         LINE#         401
  C:27F8H         LINE#         402
  C:27F8H         LINE#         403
  C:27F8H         LINE#         404
  C:27F8H         LINE#         405
BL51 BANKED LINKER/LOCATER V6.22                                                      06/07/2020  11:08:23  PAGE 129


  C:27FBH         LINE#         407
  C:27FBH         LINE#         408
  C:27FBH         LINE#         409
  C:27FEH         LINE#         410
  C:2803H         LINE#         411
  C:2803H         LINE#         412
  C:2806H         LINE#         414
  C:2808H         LINE#         416
  C:2808H         LINE#         417
  C:2810H         LINE#         419
  C:2810H         LINE#         420
  C:281DH         LINE#         421
  C:281DH         LINE#         422
  C:2823H         LINE#         423
  C:2823H         LINE#         424
  C:2828H         LINE#         425
  C:282BH         LINE#         427
  C:282BH         LINE#         428
  C:2837H         LINE#         429
  C:2837H         LINE#         430
  C:283FH         LINE#         431
  C:283FH         LINE#         432
  C:283FH         LINE#         433
  C:283FH         LINE#         434
  C:2841H         LINE#         436
  C:2841H         LINE#         437
  C:2843H         LINE#         438
  C:2845H         LINE#         440
  C:2845H         LINE#         441
  C:284AH         LINE#         442
  C:284AH         LINE#         443
  C:284AH         LINE#         444
  C:284AH         LINE#         445
  C:284DH         LINE#         446
  C:2855H         LINE#         447
  C:2858H         LINE#         449
  C:2858H         LINE#         450
  C:2858H         LINE#         451
  C:285DH         LINE#         452
  C:285DH         LINE#         453
  C:2860H         LINE#         455
  C:2862H         LINE#         457
  C:2862H         LINE#         458
  C:286AH         LINE#         460
  C:286AH         LINE#         461
  C:286AH         LINE#         462
  C:2876H         LINE#         463
  C:2876H         LINE#         464
  C:287BH         LINE#         465
  C:287BH         LINE#         467
  C:28A1H         LINE#         468
  C:28A6H         LINE#         469
  C:28A9H         LINE#         470
  C:28ACH         LINE#         471
  C:28AFH         LINE#         473
  C:28AFH         LINE#         475
  C:28D5H         LINE#         476
BL51 BANKED LINKER/LOCATER V6.22                                                      06/07/2020  11:08:23  PAGE 130


  C:28DAH         LINE#         477
  C:28DDH         LINE#         478
  C:28E0H         LINE#         479
  C:28E5H         LINE#         480
  C:28EDH         LINE#         481
  C:28F0H         LINE#         483
  C:28F0H         LINE#         484
  C:28F8H         LINE#         485
  C:28F8H         LINE#         486
  C:28FDH         LINE#         487
  C:28FFH         LINE#         488
  C:2902H         LINE#         489
  C:2902H         LINE#         490
  C:2902H         LINE#         491
  C:2904H         LINE#         492
  C:2908H         LINE#         493
  C:2908H         LINE#         494
  C:291CH         LINE#         495
  C:291CH         LINE#         497
  C:291CH         LINE#         498
  C:2923H         LINE#         499
  C:2923H         LINE#         501
  C:2925H         LINE#         502
  C:2927H         LINE#         504
  C:2927H         LINE#         506
  C:292CH         LINE#         507
  C:292CH         LINE#         509
  C:296CH         LINE#         510
  C:296CH         LINE#         512
  C:296CH         LINE#         513
  C:296CH         LINE#         575
  C:296FH         LINE#         577
  C:296FH         LINE#         578
  C:2972H         LINE#         579
  C:2979H         LINE#         580
  C:297EH         LINE#         581
  C:2992H         LINE#         582
  C:2992H         LINE#         583
  C:2992H         LINE#         585
  C:2992H         LINE#         586
  C:2994H         LINE#         588
  C:2994H         LINE#         590
  C:2996H         LINE#         591
  C:2998H         LINE#         593
  C:2998H         LINE#         595
  C:299AH         LINE#         596
  C:299CH         LINE#         598
  C:299CH         LINE#         600
  C:299EH         LINE#         601
  C:29A0H         LINE#         603
  C:29A0H         LINE#         605
  C:29A2H         LINE#         606
  C:29A4H         LINE#         608
  C:29A4H         LINE#         610
  C:29A9H         LINE#         611
  C:29A9H         LINE#         612
  C:29A9H         LINE#         613
BL51 BANKED LINKER/LOCATER V6.22                                                      06/07/2020  11:08:23  PAGE 131


  C:29B0H         LINE#         618
  C:29D6H         LINE#         619
  C:29DBH         LINE#         620
  C:29DEH         LINE#         621
  C:29DEH         LINE#         622
  C:29E0H         LINE#         624
  C:29E0H         LINE#         626
  C:29E3H         LINE#         627
  C:29E8H         LINE#         628
  C:29EBH         LINE#         629
  C:29EEH         LINE#         630
  C:29F1H         LINE#         632
  C:29F1H         LINE#         637
  C:29F1H         LINE#         639
  C:29F1H         LINE#         641
  C:29FDH         LINE#         642
  C:29FDH         LINE#         643
  C:2A02H         LINE#         644
  C:2A28H         LINE#         645
  C:2A28H         LINE#         646
  C:2A2BH         LINE#         648
  C:2A2BH         LINE#         650
  C:2A31H         LINE#         651
  C:2A31H         LINE#         652
  C:2A34H         LINE#         660
  C:2A34H         LINE#         661
  C:2A37H         LINE#         663
  C:2A37H         LINE#         665
  C:2A3DH         LINE#         666
  C:2A3DH         LINE#         668
  C:2A40H         LINE#         669
  C:2A43H         LINE#         670
  C:2A43H         LINE#         671
  C:2A46H         LINE#         673
  C:2A46H         LINE#         674
  C:2A46H         LINE#         675
  C:2A4BH         LINE#         676
  C:2A4BH         LINE#         677
  C:2A4DH         LINE#         678
  C:2A4FH         LINE#         680
  C:2A4FH         LINE#         681
  C:2A54H         LINE#         682
  C:2A54H         LINE#         683
  C:2A91H         LINE#         684
  C:2A91H         LINE#         685
  C:2AC8H         LINE#         686
  C:2AC8H         LINE#         687
  C:2B05H         LINE#         688
  C:2B05H         LINE#         689
  C:2B36H         LINE#         690
  C:2B36H         LINE#         691
  C:2B36H         LINE#         693
  C:2B42H         LINE#         694
  C:2B42H         LINE#         695
  C:2B44H         LINE#         696
  C:2B44H         LINE#         697
  C:2B44H         LINE#         698
BL51 BANKED LINKER/LOCATER V6.22                                                      06/07/2020  11:08:23  PAGE 132


  C:2B44H         LINE#         699
  C:2B44H         LINE#         700
  C:2B44H         LINE#         701
  C:2B47H         LINE#         703
  C:2B47H         LINE#         704
  C:2B47H         LINE#         706
  C:2B4DH         LINE#         707
  C:2B4DH         LINE#         708
  C:2B4FH         LINE#         709
  C:2B4FH         LINE#         710
  C:2B54H         LINE#         711
  C:2B59H         LINE#         712
  C:2B59H         LINE#         713
  C:2B7FH         LINE#         714
  C:2B84H         LINE#         715
  C:2B87H         LINE#         716
  C:2B8AH         LINE#         717
  C:2B8DH         LINE#         718
  C:2B8DH         LINE#         719
  C:2BCAH         LINE#         720
  C:2BCAH         LINE#         721
  C:2C03H         LINE#         722
  C:2C03H         LINE#         723
  C:2C06H         LINE#         724
  C:2C06H         LINE#         725
  C:2C06H         LINE#         726
  C:2C46H         LINE#         727
  C:2C46H         LINE#         728
  C:2C46H         LINE#         729
  C:2C46H         LINE#         730
  C:2C49H         LINE#         732
  C:2C49H         LINE#         734
  C:2C4FH         LINE#         735
  C:2C4FH         LINE#         736
  C:2C51H         LINE#         737
  C:2C51H         LINE#         738
  C:2C56H         LINE#         739
  C:2C93H         LINE#         740
  C:2C93H         LINE#         741
  C:2CCCH         LINE#         742
  C:2CCCH         LINE#         743
  C:2CCFH         LINE#         744
  C:2CCFH         LINE#         745
  C:2CCFH         LINE#         746
  C:2D0CH         LINE#         747
  C:2D0CH         LINE#         748
  C:2D3DH         LINE#         749
  C:2D3DH         LINE#         750
  C:2D3DH         LINE#         752
  C:2D45H         LINE#         753
  C:2D45H         LINE#         754
  C:2D6BH         LINE#         755
  C:2D70H         LINE#         756
  C:2D73H         LINE#         757
  C:2D76H         LINE#         758
  C:2D79H         LINE#         759
  C:2D79H         LINE#         760
BL51 BANKED LINKER/LOCATER V6.22                                                      06/07/2020  11:08:23  PAGE 133


  C:2D79H         LINE#         761
  C:2D7CH         LINE#         763
  C:2D7CH         LINE#         765
  C:2D81H         LINE#         766
  C:2DBEH         LINE#         767
  C:2DBEH         LINE#         768
  C:2DF5H         LINE#         769
  C:2DF5H         LINE#         770
  C:2E32H         LINE#         771
  C:2E32H         LINE#         772
  C:2E63H         LINE#         773
  C:2E63H         LINE#         774
  C:2E63H         LINE#         776
  C:2E68H         LINE#         777
  C:2E8EH         LINE#         778
  C:2E93H         LINE#         779
  C:2E96H         LINE#         780
  C:2E9BH         LINE#         781
  C:2E9EH         LINE#         783
  C:2E9EH         LINE#         785
  C:2EA4H         LINE#         786
  C:2EA4H         LINE#         787
  C:2EA6H         LINE#         788
  C:2EA6H         LINE#         789
  C:2EABH         LINE#         790
  C:2EE8H         LINE#         791
  C:2EE8H         LINE#         792
  C:2F21H         LINE#         793
  C:2F21H         LINE#         794
  C:2F24H         LINE#         795
  C:2F24H         LINE#         796
  C:2F24H         LINE#         797
  C:2F61H         LINE#         798
  C:2F61H         LINE#         799
  C:2F92H         LINE#         800
  C:2F92H         LINE#         801
  C:2F92H         LINE#         803
  C:2F9AH         LINE#         804
  C:2F9AH         LINE#         805
  C:2FC0H         LINE#         806
  C:2FC5H         LINE#         807
  C:2FC8H         LINE#         808
  C:2FCBH         LINE#         809
  C:2FCEH         LINE#         810
  C:2FCEH         LINE#         811
  C:2FD1H         LINE#         813
  C:2FD1H         LINE#         815
  C:2FD6H         LINE#         816
  C:2FDBH         LINE#         817
  C:2FDBH         LINE#         818
  C:3001H         LINE#         819
  C:3006H         LINE#         820
  C:3009H         LINE#         821
  C:300CH         LINE#         822
  C:300FH         LINE#         823
  C:3012H         LINE#         824
  C:3012H         LINE#         825
BL51 BANKED LINKER/LOCATER V6.22                                                      06/07/2020  11:08:23  PAGE 134


  C:304FH         LINE#         826
  C:304FH         LINE#         827
  C:3088H         LINE#         828
  C:3088H         LINE#         829
  C:308BH         LINE#         830
  C:308BH         LINE#         831
  C:308BH         LINE#         832
  C:30CBH         LINE#         833
  C:30CBH         LINE#         834
  C:30CBH         LINE#         835
  C:30CBH         LINE#         836
  C:30CEH         LINE#         838
  C:30CEH         LINE#         840
  C:30D3H         LINE#         841
  C:30D8H         LINE#         842
  C:30D8H         LINE#         843
  C:30FEH         LINE#         844
  C:3103H         LINE#         845
  C:3106H         LINE#         846
  C:3109H         LINE#         847
  C:310CH         LINE#         848
  C:310FH         LINE#         849
  C:310FH         LINE#         850
  C:314CH         LINE#         851
  C:314CH         LINE#         852
  C:3185H         LINE#         853
  C:3185H         LINE#         854
  C:3188H         LINE#         855
  C:3188H         LINE#         856
  C:3188H         LINE#         857
  C:31C8H         LINE#         858
  C:31C8H         LINE#         859
  C:31C8H         LINE#         860
  C:31C8H         LINE#         861
  C:31CBH         LINE#         863
  C:31CBH         LINE#         865
  C:31D0H         LINE#         866
  C:31D5H         LINE#         867
  C:31D5H         LINE#         868
  C:31FBH         LINE#         869
  C:3200H         LINE#         870
  C:3203H         LINE#         871
  C:3206H         LINE#         872
  C:3209H         LINE#         873
  C:320CH         LINE#         874
  C:320CH         LINE#         875
  C:3249H         LINE#         876
  C:3249H         LINE#         877
  C:3282H         LINE#         878
  C:3282H         LINE#         879
  C:3285H         LINE#         880
  C:3285H         LINE#         881
  C:3285H         LINE#         882
  C:32C5H         LINE#         883
  C:32C5H         LINE#         884
  C:32F6H         LINE#         885
  C:32F6H         LINE#         886
BL51 BANKED LINKER/LOCATER V6.22                                                      06/07/2020  11:08:23  PAGE 135


  C:32F9H         LINE#         888
  C:32F9H         LINE#         890
  C:32FBH         LINE#         891
  C:3301H         LINE#         892
  C:3309H         LINE#         893
  C:330CH         LINE#         894
  C:330FH         LINE#         895
  C:3314H         LINE#         896
  C:333AH         LINE#         897
  C:333FH         LINE#         898
  C:3342H         LINE#         899
  C:334DH         LINE#         900
  C:3350H         LINE#         902
  C:3350H         LINE#         904
  C:3353H         LINE#         916
  C:3356H         LINE#         917
  C:3356H         LINE#         918
  C:3358H         LINE#         919
  C:3358H         LINE#         921
  C:3358H         LINE#         923
  C:335BH         LINE#         924
  C:335DH         LINE#         925
  C:335DH         LINE#         927
  C:335DH         LINE#         929
  C:335FH         LINE#         930
  C:3364H         LINE#         932
  C:3367H         LINE#         933
  C:336AH         LINE#         934
  C:336DH         LINE#         935
  C:3370H         LINE#         936
  C:3378H         LINE#         937
  C:337BH         LINE#         938
  C:337DH         LINE#         939
  C:337DH         LINE#         941
  C:337DH         LINE#         943
  C:3382H         LINE#         944
  C:33BFH         LINE#         945
  C:33BFH         LINE#         946
  C:33F6H         LINE#         947
  C:33F6H         LINE#         948
  C:3433H         LINE#         949
  C:3433H         LINE#         950
  C:3464H         LINE#         951
  C:3464H         LINE#         952
  C:348AH         LINE#         953
  C:348FH         LINE#         954
  C:3492H         LINE#         955
  C:3495H         LINE#         1026
  C:3495H         LINE#         1027
  C:3497H         LINE#         1028
  C:3497H         LINE#         1029
  C:3497H         LINE#         1030
  C:3497H         LINE#         1031
  C:3498H         LINE#         1032
  -------         ENDPROC       _EXECTCOMD
  -------         PROC          _MENUPROCESSKEY
  D:0007H         SYMBOL        OpratComd
BL51 BANKED LINKER/LOCATER V6.22                                                      06/07/2020  11:08:23  PAGE 136


  C:92CFH         LINE#         1034
  C:92CFH         LINE#         1035
  C:92CFH         LINE#         1036
  C:92D2H         LINE#         1037
  C:92D2H         LINE#         1038
  C:92E0H         LINE#         1039
  C:92E0H         LINE#         1040
  C:92F1H         LINE#         1041
  C:92F1H         LINE#         1069
  C:92F3H         LINE#         1071
  C:92F3H         LINE#         1072
  C:92F3H         LINE#         1073
  C:92F8H         LINE#         1074
  C:92F8H         LINE#         1075
  C:9324H         LINE#         1076
  C:9324H         LINE#         1077
  C:9324H         LINE#         1078
  -------         ENDPROC       _MENUPROCESSKEY
  -------         PROC          INITOSDBLOCK
  C:A5EBH         LINE#         1087
  C:A5EBH         LINE#         1088
  C:A5EBH         LINE#         1089
  -------         ENDPROC       INITOSDBLOCK
  -------         PROC          INITOSD
  C:8F21H         LINE#         1092
  C:8F21H         LINE#         1093
  C:8F21H         LINE#         1095
  C:8F24H         LINE#         1096
  C:8F27H         LINE#         1097
  C:8F2AH         LINE#         1098
  C:8F31H         LINE#         1099
  C:8F3AH         LINE#         1100
  C:8F3FH         LINE#         1101
  C:8F44H         LINE#         1103
  C:8F5FH         LINE#         1104
  C:8F6CH         LINE#         1105
  C:8F79H         LINE#         1106
  -------         ENDPROC       INITOSD
  C:62A2H         SYMBOL        L?0349
  -------         PROC          L?0348
  -------         ENDPROC       L?0348
  C:62A2H         SYMBOL        L?0349
  -------         PROC          _?DRAWOSDTITEL
  i:0002H         SYMBOL        pTitel
  i:0005H         SYMBOL        status
  -------         DO            
  i:0000H         SYMBOL        ucForeColor
  i:0001H         SYMBOL        ucBackColor
  -------         ENDDO         
  C:62A6H         LINE#         1125
  C:62C5H         LINE#         1130
  C:62C5H         LINE#         1131
  C:62C5H         LINE#         1132
  C:62D7H         LINE#         1133
  C:62D7H         LINE#         1134
  C:62D7H         LINE#         1135
  C:62D7H         LINE#         1136
BL51 BANKED LINKER/LOCATER V6.22                                                      06/07/2020  11:08:23  PAGE 137


  C:62E4H         LINE#         1137
  C:62E4H         LINE#         1138
  C:62F9H         LINE#         1139
  C:6303H         LINE#         1140
  C:6303H         LINE#         1141
  C:6307H         LINE#         1142
  C:6307H         LINE#         1143
  C:631CH         LINE#         1144
  C:6326H         LINE#         1145
  C:6326H         LINE#         1147
  C:633DH         LINE#         1148
  C:633DH         LINE#         1149
  C:637EH         LINE#         1150
  C:637EH         LINE#         1151
  C:6393H         LINE#         1152
  C:6393H         LINE#         1153
  C:6393H         LINE#         1154
  C:6393H         LINE#         1155
  C:63A1H         LINE#         1156
  C:63A4H         LINE#         1158
  -------         ENDPROC       _?DRAWOSDTITEL
  -------         PROC          L?0350
  -------         ENDPROC       L?0350
  -------         PROC          _DRAWOSDICON
  D:002AH         SYMBOL        pIcon
  D:002DH         SYMBOL        status
  -------         DO            
  X:005CH         SYMBOL        ucBackColor
  -------         ENDDO         
  C:7077H         LINE#         1170
  C:7081H         LINE#         1171
  C:7081H         LINE#         1175
  C:7081H         LINE#         1176
  C:7081H         LINE#         1177
  C:708CH         LINE#         1178
  C:708CH         LINE#         1179
  C:708CH         LINE#         1180
  C:708CH         LINE#         1182
  C:7091H         LINE#         1183
  C:7091H         LINE#         1184
  C:70A1H         LINE#         1185
  C:70A1H         LINE#         1186
  C:70A6H         LINE#         1187
  C:70A6H         LINE#         1188
  C:70B6H         LINE#         1189
  C:70B6H         LINE#         1190
  C:70C7H         LINE#         1191
  C:70C7H         LINE#         1192
  C:710BH         LINE#         1193
  C:710BH         LINE#         1195
  C:711AH         LINE#         1196
  C:711AH         LINE#         1197
  C:711AH         LINE#         1198
  C:711AH         LINE#         1199
  C:7125H         LINE#         1201
  C:7128H         LINE#         1202
  -------         ENDPROC       _DRAWOSDICON
BL51 BANKED LINKER/LOCATER V6.22                                                      06/07/2020  11:08:23  PAGE 138


  -------         PROC          _DRAWOSDMENUITEMNUMBER
  D:002FH         SYMBOL        pNumberItem
  D:0004H         SYMBOL        status
  -------         DO            
  X:005CH         SYMBOL        ucForeColor
  X:005DH         SYMBOL        ucBackColor
  -------         ENDDO         
  C:7532H         LINE#         1215
  C:7538H         LINE#         1216
  C:7538H         LINE#         1220
  C:7540H         LINE#         1221
  C:7540H         LINE#         1222
  C:7544H         LINE#         1223
  C:7544H         LINE#         1224
  C:754EH         LINE#         1225
  C:7558H         LINE#         1226
  C:7558H         LINE#         1227
  C:755CH         LINE#         1228
  C:755CH         LINE#         1229
  C:756CH         LINE#         1230
  C:7576H         LINE#         1231
  C:7576H         LINE#         1233
  C:7585H         LINE#         1234
  C:7585H         LINE#         1235
  C:75B4H         LINE#         1236
  C:75B4H         LINE#         1237
  C:75C3H         LINE#         1238
  C:75C3H         LINE#         1239
  C:75F2H         LINE#         1240
  C:75F2H         LINE#         1241
  C:75F2H         LINE#         1242
  -------         ENDPROC       _DRAWOSDMENUITEMNUMBER
  -------         PROC          _DRAWOSDMENUITEMGUAGE
  D:002FH         SYMBOL        pGaugeItem
  D:0004H         SYMBOL        status
  -------         DO            
  X:005CH         SYMBOL        ucForeColor
  X:005DH         SYMBOL        ucBackColor
  -------         ENDDO         
  C:84BFH         LINE#         1254
  C:84C5H         LINE#         1255
  C:84C5H         LINE#         1259
  C:84CDH         LINE#         1260
  C:84CDH         LINE#         1261
  C:84D1H         LINE#         1262
  C:84D1H         LINE#         1263
  C:84DBH         LINE#         1264
  C:84E5H         LINE#         1265
  C:84E5H         LINE#         1266
  C:84E9H         LINE#         1267
  C:84E9H         LINE#         1268
  C:84F9H         LINE#         1269
  C:8503H         LINE#         1270
  C:8503H         LINE#         1271
  C:8514H         LINE#         1272
  C:8514H         LINE#         1273
  C:854FH         LINE#         1274
BL51 BANKED LINKER/LOCATER V6.22                                                      06/07/2020  11:08:23  PAGE 139


  C:854FH         LINE#         1275
  C:854FH         LINE#         1276
  -------         ENDPROC       _DRAWOSDMENUITEMGUAGE
  -------         PROC          _DRAWOSDMENUITEMOPTION
  D:002FH         SYMBOL        pOptionItem
  D:0004H         SYMBOL        status
  -------         DO            
  X:005CH         SYMBOL        ucForeColor
  X:005DH         SYMBOL        ucBackColor
  -------         ENDDO         
  C:878EH         LINE#         1288
  C:8794H         LINE#         1289
  C:8794H         LINE#         1294
  C:879CH         LINE#         1295
  C:879CH         LINE#         1296
  C:87A0H         LINE#         1297
  C:87A0H         LINE#         1298
  C:87AAH         LINE#         1299
  C:87B4H         LINE#         1300
  C:87B4H         LINE#         1301
  C:87B8H         LINE#         1302
  C:87B8H         LINE#         1303
  C:87C8H         LINE#         1304
  C:87D2H         LINE#         1305
  C:87D2H         LINE#         1306
  C:87E3H         LINE#         1307
  C:87E3H         LINE#         1308
  C:881AH         LINE#         1309
  C:881AH         LINE#         1310
  C:881AH         LINE#         1311
  -------         ENDPROC       _DRAWOSDMENUITEMOPTION
  C:72D0H         SYMBOL        L?0343
  -------         PROC          L?0342
  -------         ENDPROC       L?0342
  C:72D0H         SYMBOL        L?0343
  -------         PROC          _DRAWOSDMENUITEMVALUE
  D:002AH         SYMBOL        pItemValue
  D:002DH         SYMBOL        status
  C:730AH         LINE#         1322
  C:7314H         LINE#         1323
  C:7314H         LINE#         1324
  C:731CH         LINE#         1325
  C:731CH         LINE#         1327
  C:731CH         LINE#         1329
  C:731CH         LINE#         1330
  C:731CH         LINE#         1331
  C:732AH         LINE#         1332
  C:732AH         LINE#         1333
  C:733AH         LINE#         1334
  C:733AH         LINE#         1335
  C:734BH         LINE#         1336
  C:734BH         LINE#         1337
  C:735EH         LINE#         1338
  C:735EH         LINE#         1339
  C:736FH         LINE#         1340
  C:736FH         LINE#         1341
  C:7382H         LINE#         1342
BL51 BANKED LINKER/LOCATER V6.22                                                      06/07/2020  11:08:23  PAGE 140


  C:7382H         LINE#         1343
  C:7391H         LINE#         1344
  C:7391H         LINE#         1345
  C:7391H         LINE#         1346
  C:7391H         LINE#         1347
  C:739CH         LINE#         1348
  C:739FH         LINE#         1349
  -------         ENDPROC       _DRAWOSDMENUITEMVALUE
  C:5C5CH         SYMBOL        L?0345
  C:5C64H         SYMBOL        L?0346
  C:5C85H         SYMBOL        L?0347
  -------         PROC          L?0344
  -------         ENDPROC       L?0344
  C:5C5CH         SYMBOL        L?0345
  C:5C64H         SYMBOL        L?0346
  C:5C85H         SYMBOL        L?0347
  -------         PROC          _?DRAWOSDMENUITEM
  i:0003H         SYMBOL        pMenuItem
  i:0006H         SYMBOL        status
  -------         DO            
  i:0000H         SYMBOL        wcDrawItemCdtion
  -------         ENDDO         
  C:5C90H         LINE#         1360
  C:5CB1H         LINE#         1365
  C:5CC9H         LINE#         1366
  C:5CC9H         LINE#         1367
  C:5CECH         LINE#         1368
  C:5CECH         LINE#         1371
  C:5D04H         LINE#         1372
  C:5D04H         LINE#         1373
  C:5D1AH         LINE#         1374
  C:5D1AH         LINE#         1376
  C:5D32H         LINE#         1377
  C:5D32H         LINE#         1378
  C:5D52H         LINE#         1379
  C:5D52H         LINE#         1380
  C:5D6AH         LINE#         1381
  C:5D6AH         LINE#         1382
  C:5D86H         LINE#         1383
  C:5D86H         LINE#         1384
  C:5DA6H         LINE#         1386
  -------         ENDPROC       _?DRAWOSDMENUITEM
  -------         PROC          DRAWOSDMENU
  -------         DO            
  X:0058H         SYMBOL        wcDrawMenuCdtion
  X:005BH         SYMBOL        i
  -------         ENDDO         
  C:548BH         LINE#         1397
  C:548BH         LINE#         1398
  C:548BH         LINE#         1405
  C:54B3H         LINE#         1406
  C:54B3H         LINE#         1407
  C:54E2H         LINE#         1408
  C:54E2H         LINE#         1410
  C:5507H         LINE#         1411
  C:5507H         LINE#         1412
  C:550AH         LINE#         1414
BL51 BANKED LINKER/LOCATER V6.22                                                      06/07/2020  11:08:23  PAGE 141


  C:550AH         LINE#         1416
  C:550AH         LINE#         1418
  C:553CH         LINE#         1419
  C:553CH         LINE#         1421
  C:553FH         LINE#         1422
  C:5565H         LINE#         1423
  C:5592H         LINE#         1424
  C:55DFH         LINE#         1425
  C:5610H         LINE#         1426
  C:5638H         LINE#         1427
  C:5638H         LINE#         1428
  C:565AH         LINE#         1429
  C:565AH         LINE#         1430
  C:565AH         LINE#         1432
  C:5682H         LINE#         1433
  C:5682H         LINE#         1434
  C:5685H         LINE#         1435
  C:5685H         LINE#         1437
  C:56ADH         LINE#         1438
  C:56ADH         LINE#         1439
  C:56B0H         LINE#         1440
  C:56B0H         LINE#         1442
  C:56E0H         LINE#         1443
  C:56E0H         LINE#         1444
  C:56F0H         LINE#         1445
  C:56F8H         LINE#         1446
  C:571EH         LINE#         1447
  C:571EH         LINE#         1448
  -------         ENDPROC       DRAWOSDMENU
  -------         PROC          DRAWSPECIALOSDMENU
  -------         DO            
  X:0058H         SYMBOL        wcDrawMenuCdtion
  X:005BH         SYMBOL        i
  -------         ENDDO         
  C:571FH         LINE#         1452
  C:571FH         LINE#         1453
  C:571FH         LINE#         1460
  C:5747H         LINE#         1461
  C:5747H         LINE#         1462
  C:5776H         LINE#         1463
  C:5776H         LINE#         1465
  C:579BH         LINE#         1466
  C:579BH         LINE#         1467
  C:579EH         LINE#         1469
  C:579EH         LINE#         1471
  C:579EH         LINE#         1473
  C:57D1H         LINE#         1474
  C:57D1H         LINE#         1476
  C:57F4H         LINE#         1477
  C:5821H         LINE#         1478
  C:586EH         LINE#         1479
  C:589FH         LINE#         1480
  C:58C7H         LINE#         1481
  C:58C7H         LINE#         1482
  C:58E9H         LINE#         1483
  C:58E9H         LINE#         1484
  C:58E9H         LINE#         1486
BL51 BANKED LINKER/LOCATER V6.22                                                      06/07/2020  11:08:23  PAGE 142


  C:5911H         LINE#         1487
  C:5911H         LINE#         1488
  C:5914H         LINE#         1489
  C:5914H         LINE#         1491
  C:593CH         LINE#         1492
  C:593CH         LINE#         1493
  C:593FH         LINE#         1494
  C:593FH         LINE#         1496
  C:596FH         LINE#         1497
  C:596FH         LINE#         1498
  C:597FH         LINE#         1499
  C:5987H         LINE#         1500
  C:59ADH         LINE#         1501
  C:59ADH         LINE#         1502
  -------         ENDPROC       DRAWSPECIALOSDMENU
  -------         PROC          GETPREVITEM
  -------         DO            
  X:0058H         SYMBOL        ucTempItemIndex
  X:0059H         SYMBOL        ucPrevItemIndex
  -------         ENDDO         
  C:6BE5H         LINE#         1505
  C:6BE5H         LINE#         1506
  C:6BE5H         LINE#         1509
  C:6BEDH         LINE#         1510
  C:6BEFH         LINE#         1512
  C:6BEFH         LINE#         1513
  C:6BEFH         LINE#         1514
  C:6BF8H         LINE#         1515
  C:6BF8H         LINE#         1516
  C:6BFBH         LINE#         1517
  C:6BFDH         LINE#         1519
  C:6BFDH         LINE#         1520
  C:6C24H         LINE#         1521
  C:6C24H         LINE#         1522
  C:6C5DH         LINE#         1523
  C:6C5DH         LINE#         1524
  C:6C68H         LINE#         1525
  C:6C68H         LINE#         1526
  C:6CA7H         LINE#         1527
  C:6CA7H         LINE#         1528
  C:6CA7H         LINE#         1529
  C:6CA7H         LINE#         1530
  C:6CA9H         LINE#         1531
  C:6CA9H         LINE#         1532
  C:6CA9H         LINE#         1534
  C:6CA9H         LINE#         1535
  C:6CB2H         LINE#         1536
  C:6CBAH         LINE#         1537
  C:6CBBH         LINE#         1538
  C:6CBBH         LINE#         1539
  C:6CBBH         LINE#         1540
  C:6CCAH         LINE#         1541
  C:6CCAH         LINE#         1542
  C:6CCAH         LINE#         1543
  C:6CCAH         LINE#         1545
  C:6CCFH         LINE#         1546
  -------         ENDPROC       GETPREVITEM
BL51 BANKED LINKER/LOCATER V6.22                                                      06/07/2020  11:08:23  PAGE 143


  -------         PROC          GETNEXTITEM
  -------         DO            
  X:0058H         SYMBOL        ucTempItemIndex
  X:0059H         SYMBOL        ucPrevItemIndex
  -------         ENDDO         
  C:73A0H         LINE#         1548
  C:73A0H         LINE#         1549
  C:73A0H         LINE#         1552
  C:73A8H         LINE#         1553
  C:73AAH         LINE#         1555
  C:73AAH         LINE#         1556
  C:73AAH         LINE#         1557
  C:73D6H         LINE#         1558
  C:73D6H         LINE#         1559
  C:73D9H         LINE#         1560
  C:73DBH         LINE#         1562
  C:73DBH         LINE#         1563
  C:73E0H         LINE#         1564
  C:73E0H         LINE#         1566
  C:73FDH         LINE#         1567
  C:73FDH         LINE#         1568
  C:7408H         LINE#         1569
  C:7408H         LINE#         1570
  C:7447H         LINE#         1571
  C:7447H         LINE#         1572
  C:7447H         LINE#         1573
  C:7447H         LINE#         1574
  C:7449H         LINE#         1575
  C:7449H         LINE#         1576
  C:7449H         LINE#         1578
  C:7449H         LINE#         1579
  C:7452H         LINE#         1580
  C:745AH         LINE#         1581
  C:745BH         LINE#         1582
  C:745BH         LINE#         1583
  C:745BH         LINE#         1585
  C:746AH         LINE#         1586
  C:746AH         LINE#         1587
  C:746AH         LINE#         1588
  C:746AH         LINE#         1590
  C:746FH         LINE#         1591
  -------         ENDPROC       GETNEXTITEM
  -------         PROC          GETNEXTMENU
  -------         DO            
  X:0058H         SYMBOL        ucNextPage
  X:0059H         SYMBOL        ucIndex
  -------         ENDDO         
  C:6AF9H         LINE#         1594
  C:6AF9H         LINE#         1595
  C:6AF9H         LINE#         1598
  C:6B20H         LINE#         1599
  C:6B23H         LINE#         1604
  C:6B23H         LINE#         1605
  C:6B23H         LINE#         1606
  C:6B2CH         LINE#         1607
  C:6B2CH         LINE#         1608
  C:6B2FH         LINE#         1609
BL51 BANKED LINKER/LOCATER V6.22                                                      06/07/2020  11:08:23  PAGE 144


  C:6B31H         LINE#         1611
  C:6B31H         LINE#         1612
  C:6B36H         LINE#         1613
  C:6B36H         LINE#         1614
  C:6B60H         LINE#         1615
  C:6B60H         LINE#         1616
  C:6B69H         LINE#         1617
  C:6B69H         LINE#         1618
  C:6B74H         LINE#         1619
  C:6B74H         LINE#         1620
  C:6B9FH         LINE#         1621
  C:6B9FH         LINE#         1622
  C:6BA1H         LINE#         1623
  C:6BA1H         LINE#         1625
  C:6BA1H         LINE#         1626
  C:6BC7H         LINE#         1627
  C:6BC7H         LINE#         1628
  C:6BC9H         LINE#         1630
  C:6BC9H         LINE#         1631
  C:6BCBH         LINE#         1632
  C:6BCBH         LINE#         1633
  C:6BCBH         LINE#         1634
  C:6BCBH         LINE#         1635
  C:6BDAH         LINE#         1636
  C:6BDAH         LINE#         1637
  C:6BDFH         LINE#         1638
  C:6BDFH         LINE#         1639
  C:6BDFH         LINE#         1640
  C:6BDFH         LINE#         1641
  C:6BE4H         LINE#         1642
  -------         ENDPROC       GETNEXTMENU
  -------         PROC          GETPREMENU
  -------         DO            
  X:0058H         SYMBOL        ucPrePage
  X:0059H         SYMBOL        ucIndex
  -------         ENDDO         
  C:6CD0H         LINE#         1644
  C:6CD0H         LINE#         1645
  C:6CD0H         LINE#         1648
  C:6CF7H         LINE#         1649
  C:6CFAH         LINE#         1650
  C:6CFAH         LINE#         1651
  C:6CFAH         LINE#         1652
  C:6D03H         LINE#         1653
  C:6D03H         LINE#         1654
  C:6D06H         LINE#         1655
  C:6D08H         LINE#         1657
  C:6D08H         LINE#         1658
  C:6D0EH         LINE#         1659
  C:6D0EH         LINE#         1660
  C:6D38H         LINE#         1661
  C:6D38H         LINE#         1662
  C:6D41H         LINE#         1663
  C:6D41H         LINE#         1664
  C:6D4CH         LINE#         1665
  C:6D4CH         LINE#         1666
  C:6D77H         LINE#         1667
BL51 BANKED LINKER/LOCATER V6.22                                                      06/07/2020  11:08:23  PAGE 145


  C:6D77H         LINE#         1668
  C:6D79H         LINE#         1669
  C:6D79H         LINE#         1671
  C:6D79H         LINE#         1672
  C:6D9FH         LINE#         1673
  C:6D9FH         LINE#         1674
  C:6DA1H         LINE#         1676
  C:6DA1H         LINE#         1677
  C:6DA7H         LINE#         1678
  C:6DA7H         LINE#         1679
  C:6DA7H         LINE#         1680
  C:6DA7H         LINE#         1682
  C:6DB7H         LINE#         1683
  C:6DB7H         LINE#         1684
  C:6DB7H         LINE#         1685
  C:6DB7H         LINE#         1687
  C:6DB7H         LINE#         1688
  -------         ENDPROC       GETPREMENU
  -------         PROC          _FINDMENUPAGEINDEX
  D:0007H         SYMBOL        menuPage
  -------         DO            
  X:005AH         SYMBOL        i
  -------         ENDDO         
  C:9576H         LINE#         1690
  C:9576H         LINE#         1691
  C:9576H         LINE#         1692
  C:957BH         LINE#         1696
  C:9586H         LINE#         1697
  C:9586H         LINE#         1698
  C:95A8H         LINE#         1699
  C:95A8H         LINE#         1700
  C:95AEH         LINE#         1701
  C:95AEH         LINE#         1702
  C:95B6H         LINE#         1703
  C:95B8H         LINE#         1704
  -------         ENDPROC       _FINDMENUPAGEINDEX
  -------         PROC          CONFIGOSDBLOCKSTARINDEXADDR
  -------         DO            
  X:0058H         SYMBOL        i
  X:0059H         SYMBOL        Block0MaxSize
  X:005BH         SYMBOL        Block1MaxSize
  X:005DH         SYMBOL        Block2MaxSize
  X:005FH         SYMBOL        Block3MaxSize
  X:0061H         SYMBOL        Block4MaxSize
  -------         ENDDO         
  C:4E0FH         LINE#         1706
  C:4E0FH         LINE#         1707
  C:4E0FH         LINE#         1709
  C:4E16H         LINE#         1710
  C:4E1AH         LINE#         1711
  C:4E1EH         LINE#         1712
  C:4E22H         LINE#         1713
  C:4E26H         LINE#         1715
  C:4E37H         LINE#         1716
  C:4E37H         LINE#         1717
  C:4E72H         LINE#         1718
  C:4E72H         LINE#         1719
BL51 BANKED LINKER/LOCATER V6.22                                                      06/07/2020  11:08:23  PAGE 146


  C:4E72H         LINE#         1720
  C:4E94H         LINE#         1721
  C:4E94H         LINE#         1722
  C:4EC4H         LINE#         1723
  C:4EC4H         LINE#         1724
  C:4EC7H         LINE#         1725
  C:4EC7H         LINE#         1726
  C:4F05H         LINE#         1727
  C:4F05H         LINE#         1728
  C:4F35H         LINE#         1729
  C:4F35H         LINE#         1730
  C:4F38H         LINE#         1731
  C:4F38H         LINE#         1732
  C:4F76H         LINE#         1733
  C:4F76H         LINE#         1734
  C:4FA6H         LINE#         1735
  C:4FA6H         LINE#         1736
  C:4FA9H         LINE#         1737
  C:4FA9H         LINE#         1738
  C:4FE7H         LINE#         1739
  C:4FE7H         LINE#         1740
  C:5017H         LINE#         1741
  C:5017H         LINE#         1742
  C:5019H         LINE#         1743
  C:5019H         LINE#         1744
  C:5054H         LINE#         1745
  C:5054H         LINE#         1746
  C:508AH         LINE#         1747
  C:508AH         LINE#         1748
  C:508AH         LINE#         1750
  C:508AH         LINE#         1751
  C:508AH         LINE#         1752
  C:508AH         LINE#         1753
  C:5093H         LINE#         1754
  C:50D2H         LINE#         1755
  C:50D2H         LINE#         1756
  C:50E2H         LINE#         1757
  C:50F1H         LINE#         1758
  C:5100H         LINE#         1759
  C:510FH         LINE#         1760
  C:5115H         LINE#         1768
  C:511AH         LINE#         1769
  C:5133H         LINE#         1770
  C:5158H         LINE#         1771
  C:5189H         LINE#         1772
  C:5189H         LINE#         1774
  C:5189H         LINE#         1777
  C:5189H         LINE#         1780
  -------         ENDPROC       CONFIGOSDBLOCKSTARINDEXADDR
  -------         PROC          HIDEMENU
  C:A5AFH         LINE#         1782
  C:A5AFH         LINE#         1783
  C:A5AFH         LINE#         1784
  C:A5B2H         LINE#         1785
  -------         ENDPROC       HIDEMENU
  -------         PROC          RESETMENUINDEX
  C:A448H         LINE#         1788
BL51 BANKED LINKER/LOCATER V6.22                                                      06/07/2020  11:08:23  PAGE 147


  C:A448H         LINE#         1789
  C:A448H         LINE#         1790
  C:A44DH         LINE#         1791
  C:A452H         LINE#         1792
  C:A455H         LINE#         1793
  -------         ENDPROC       RESETMENUINDEX
  -------         PROC          _SETMENUINDEX
  D:0005H         SYMBOL        menuPage
  C:A199H         LINE#         1796
  C:A19BH         LINE#         1797
  C:A19BH         LINE#         1798
  C:A1A5H         LINE#         1799
  C:A1A5H         LINE#         1800
  C:A1AFH         LINE#         1801
  C:A1B2H         LINE#         1802
  C:A1B2H         LINE#         1803
  -------         ENDPROC       _SETMENUINDEX
  -------         ENDMOD        OSD_MENU

  -------         MODULE        OSD_FACTORYMENU
  C:0000H         SYMBOL        _ICE_DUMMY_
  D:0080H         PUBLIC        P0
  D:0090H         PUBLIC        P1
  D:00A0H         PUBLIC        P2
  D:00B0H         PUBLIC        P3
  D:00A8H         PUBLIC        IE
  D:00B8H         PUBLIC        IP
  D:0098H         PUBLIC        SCON
  D:0088H         PUBLIC        TCON
  C:A4CEH         PUBLIC        Switch_SelectLogoIdStr
  D:00E8H         PUBLIC        EIE
  D:00F8H         PUBLIC        EIP
  D:00C0H         PUBLIC        SCON1
  D:00C8H         PUBLIC        T2CON
  D:00D8H         PUBLIC        EICON
  D:00D0H         PUBLIC        PSW
  -------         ENDMOD        OSD_FACTORYMENU

  -------         MODULE        OSD_FACTORYPICMENU
  C:0000H         SYMBOL        _ICE_DUMMY_
  D:0080H         PUBLIC        P0
  D:0090H         PUBLIC        P1
  D:00A0H         PUBLIC        P2
  D:00B0H         PUBLIC        P3
  D:00A8H         PUBLIC        IE
  D:00B8H         PUBLIC        IP
  D:0098H         PUBLIC        SCON
  D:0088H         PUBLIC        TCON
  D:00E8H         PUBLIC        EIE
  D:00F8H         PUBLIC        EIP
  D:00C0H         PUBLIC        SCON1
  D:00C8H         PUBLIC        T2CON
  D:00D8H         PUBLIC        EICON
  D:00D0H         PUBLIC        PSW
  -------         ENDMOD        OSD_FACTORYPICMENU

  -------         MODULE        OSD_FACTORYSWITCHMENU
BL51 BANKED LINKER/LOCATER V6.22                                                      06/07/2020  11:08:23  PAGE 148


  C:0000H         SYMBOL        _ICE_DUMMY_
  D:0080H         PUBLIC        P0
  D:0090H         PUBLIC        P1
  D:00A0H         PUBLIC        P2
  D:00B0H         PUBLIC        P3
  D:00A8H         PUBLIC        IE
  D:00B8H         PUBLIC        IP
  D:0098H         PUBLIC        SCON
  D:0088H         PUBLIC        TCON
  C:A4DAH         PUBLIC        FactorySwitchMenu_SwitchLogoIdStr
  D:00E8H         PUBLIC        EIE
  D:00F8H         PUBLIC        EIP
  D:00C0H         PUBLIC        SCON1
  D:00C8H         PUBLIC        T2CON
  D:00D8H         PUBLIC        EICON
  D:00D0H         PUBLIC        PSW
  -------         ENDMOD        OSD_FACTORYSWITCHMENU

  -------         MODULE        DEBUG
  C:0000H         SYMBOL        _ICE_DUMMY_
  D:0080H         PUBLIC        P0
  D:0090H         PUBLIC        P1
  D:00A0H         PUBLIC        P2
  D:00B0H         PUBLIC        P3
  D:00A8H         PUBLIC        IE
  D:00B8H         PUBLIC        IP
  D:0098H         PUBLIC        SCON
  D:0088H         PUBLIC        TCON
  D:00E8H         PUBLIC        EIE
  D:00F8H         PUBLIC        EIP
  D:00C0H         PUBLIC        SCON1
  D:00C8H         PUBLIC        T2CON
  D:00D8H         PUBLIC        EICON
  D:00D0H         PUBLIC        PSW
  -------         ENDMOD        DEBUG

  -------         MODULE        SETP1_0
  C:0000H         SYMBOL        _ICE_DUMMY_
  D:0080H         PUBLIC        P0
  D:0090H         PUBLIC        P1
  D:00A0H         PUBLIC        P2
  D:00B0H         PUBLIC        P3
  B:0090H.0       PUBLIC        P1_0
  D:00EEH         PUBLIC        P1_IEN
  C:9D08H         PUBLIC        _?SetP1_0
  D:00EAH         PUBLIC        P1_OEN
  -------         PROC          _?SETP1_0
  i:0000H         SYMBOL        Val
  C:9D08H         LINE#         10
  C:9D0EH         LINE#         12
  C:9D15H         LINE#         13
  C:9D19H         LINE#         14
  C:9D1DH         LINE#         16
  C:9D20H         LINE#         17
  C:9D23H         LINE#         19
  C:9D28H         LINE#         20
  C:9D28H         LINE#         21
BL51 BANKED LINKER/LOCATER V6.22                                                      06/07/2020  11:08:23  PAGE 149


  C:9D2AH         LINE#         22
  C:9D2CH         LINE#         24
  C:9D2CH         LINE#         25
  C:9D2EH         LINE#         26
  C:9D2EH         LINE#         27
  -------         ENDPROC       _?SETP1_0
  -------         ENDMOD        SETP1_0

  -------         MODULE        SETP1_1
  C:0000H         SYMBOL        _ICE_DUMMY_
  D:0080H         PUBLIC        P0
  D:0090H         PUBLIC        P1
  D:00A0H         PUBLIC        P2
  D:00B0H         PUBLIC        P3
  B:0090H.1       PUBLIC        P1_1
  D:00EEH         PUBLIC        P1_IEN
  C:9D31H         PUBLIC        _?SetP1_1
  D:00EAH         PUBLIC        P1_OEN
  -------         PROC          _?SETP1_1
  i:0000H         SYMBOL        Val
  C:9D31H         LINE#         10
  C:9D37H         LINE#         12
  C:9D3EH         LINE#         13
  C:9D42H         LINE#         14
  C:9D46H         LINE#         16
  C:9D49H         LINE#         17
  C:9D4CH         LINE#         19
  C:9D51H         LINE#         20
  C:9D51H         LINE#         21
  C:9D53H         LINE#         22
  C:9D55H         LINE#         24
  C:9D55H         LINE#         25
  C:9D57H         LINE#         26
  C:9D57H         LINE#         27
  -------         ENDPROC       _?SETP1_1
  -------         ENDMOD        SETP1_1

  -------         MODULE        SETP3_5
  C:0000H         SYMBOL        _ICE_DUMMY_
  D:0080H         PUBLIC        P0
  D:0090H         PUBLIC        P1
  D:00A0H         PUBLIC        P2
  D:00B0H         PUBLIC        P3
  B:00B0H.5       PUBLIC        P3_5
  D:00F4H         PUBLIC        P3_IEN
  C:9D5AH         PUBLIC        _?SetP3_5
  D:00ECH         PUBLIC        P3_OEN
  -------         PROC          _?SETP3_5
  i:0000H         SYMBOL        Val
  C:9D5AH         LINE#         9
  C:9D60H         LINE#         12
  C:9D67H         LINE#         13
  C:9D6BH         LINE#         14
  C:9D6FH         LINE#         16
  C:9D72H         LINE#         17
  C:9D75H         LINE#         19
  C:9D7AH         LINE#         20
BL51 BANKED LINKER/LOCATER V6.22                                                      06/07/2020  11:08:23  PAGE 150


  C:9D7AH         LINE#         21
  C:9D7CH         LINE#         22
  C:9D7EH         LINE#         24
  C:9D7EH         LINE#         25
  C:9D80H         LINE#         26
  C:9D80H         LINE#         27
  -------         ENDPROC       _?SETP3_5
  -------         ENDMOD        SETP3_5

  -------         MODULE        GETP1_0
  C:0000H         SYMBOL        _ICE_DUMMY_
  D:0080H         PUBLIC        P0
  D:0090H         PUBLIC        P1
  D:00A0H         PUBLIC        P2
  D:00B0H         PUBLIC        P3
  B:0090H.0       PUBLIC        P1_0
  C:A17DH         PUBLIC        _?GetP1_0
  D:00EEH         PUBLIC        P1_IEN
  D:00EAH         PUBLIC        P1_OEN
  -------         PROC          _?GETP1_0
  C:A17DH         LINE#         11
  C:A17DH         LINE#         13
  C:A184H         LINE#         14
  C:A188H         LINE#         15
  C:A18CH         LINE#         17
  C:A18FH         LINE#         18
  C:A192H         LINE#         20
  C:A195H         LINE#         21
  C:A195H         LINE#         22
  C:A197H         LINE#         23
  C:A197H         LINE#         25
  C:A197H         LINE#         26
  C:A198H         LINE#         27
  C:A198H         LINE#         28
  -------         ENDPROC       _?GETP1_0
  -------         ENDMOD        GETP1_0

  -------         MODULE        AMT_STATIC_INIT
  C:0000H         SYMBOL        _ICE_DUMMY_
  D:008EH         PUBLIC        CKCON
  C:81CBH         PUBLIC        InitAMT
  -------         PROC          INITAMT
  C:81CBH         LINE#         6
  C:81CBH         LINE#         7
  C:81CBH         LINE#         8
  C:81CEH         LINE#         11
  C:81D4H         LINE#         13
  C:81DAH         LINE#         14
  C:81DCH         LINE#         15
  C:81DEH         LINE#         17
  C:81E4H         LINE#         18
  C:81EAH         LINE#         19
  C:81F1H         LINE#         24
  C:81F6H         LINE#         25
  C:81F8H         LINE#         26
  C:81FAH         LINE#         27
  C:81FCH         LINE#         28
BL51 BANKED LINKER/LOCATER V6.22                                                      06/07/2020  11:08:23  PAGE 151


  C:81FEH         LINE#         29
  C:8200H         LINE#         30
  C:8202H         LINE#         31
  C:8204H         LINE#         32
  C:8206H         LINE#         33
  C:8208H         LINE#         34
  C:820AH         LINE#         38
  C:8210H         LINE#         39
  C:8212H         LINE#         40
  C:8216H         LINE#         42
  C:821CH         LINE#         44
  C:8222H         LINE#         45
  C:8228H         LINE#         47
  C:822EH         LINE#         48
  C:8232H         LINE#         49
  C:8236H         LINE#         52
  C:823DH         LINE#         53
  C:8243H         LINE#         54
  C:8249H         LINE#         55
  C:824FH         LINE#         56
  C:8255H         LINE#         57
  C:825AH         LINE#         58
  C:8260H         LINE#         62
  C:8266H         LINE#         63
  C:826AH         LINE#         70
  -------         ENDPROC       INITAMT
  -------         ENDMOD        AMT_STATIC_INIT

  -------         MODULE        AMT_VIDEOPROCESS
  C:0000H         SYMBOL        _ICE_DUMMY_
  C:0428H         PUBLIC        _POS_VideoProcess
  C:A2BCH         PUBLIC        _IrqDelayMs
  C:A456H         PUBLIC        _IrqDelayUs
  -------         PROC          _IRQDELAYUS
  D:0006H         SYMBOL        cont_time
  C:A456H         LINE#         49
  C:A456H         LINE#         50
  C:A456H         LINE#         51
  C:A460H         LINE#         52
  C:A460H         LINE#         53
  C:A461H         LINE#         54
  C:A463H         LINE#         55
  -------         ENDPROC       _IRQDELAYUS
  -------         PROC          _IRQDELAYMS
  D:0002H         SYMBOL        contTime
  C:A2BCH         LINE#         57
  C:A2C0H         LINE#         58
  C:A2C0H         LINE#         59
  C:A2CAH         LINE#         60
  C:A2CAH         LINE#         61
  C:A2D1H         LINE#         62
  C:A2D3H         LINE#         63
  -------         ENDPROC       _IRQDELAYMS
  -------         PROC          _POS_VIDEOPROCESS
  D:0024H         SYMBOL        SpecialRegCtrlEn
  -------         DO            
  X:008CH         SYMBOL        contSignal
BL51 BANKED LINKER/LOCATER V6.22                                                      06/07/2020  11:08:23  PAGE 152


  X:008DH         SYMBOL        preStdSys
  X:008EH         SYMBOL        contStdStable
  X:008FH         SYMBOL        PrePicFlg
  X:0090H         SYMBOL        contPicFlgStable
  X:0091H         SYMBOL        contTimer
  -------         DO            
  D:0025H         SYMBOL        curStdSys
  D:0026H         SYMBOL        curPicFlg
  -------         ENDDO         
  -------         DO            
  D:0025H         SYMBOL        curDagc
  -------         ENDDO         
  -------         ENDDO         
  C:0428H         LINE#         72
  C:042AH         LINE#         73
  C:042AH         LINE#         82
  C:0437H         LINE#         83
  C:0437H         LINE#         84
  C:043FH         LINE#         85
  C:0445H         LINE#         88
  C:044EH         LINE#         89
  C:044EH         LINE#         90
  C:0451H         LINE#         91
  C:0454H         LINE#         92
  C:0456H         LINE#         94
  C:0456H         LINE#         95
  C:045FH         LINE#         96
  C:045FH         LINE#         97
  C:0466H         LINE#         98
  C:0466H         LINE#         99
  C:0472H         LINE#         100
  C:0472H         LINE#         101
  C:0472H         LINE#         102
  C:0477H         LINE#         103
  C:0477H         LINE#         104
  C:0479H         LINE#         106
  C:0479H         LINE#         107
  C:047EH         LINE#         108
  C:0485H         LINE#         109
  C:0487H         LINE#         111
  C:0487H         LINE#         112
  C:048EH         LINE#         113
  C:0494H         LINE#         114
  C:0494H         LINE#         116
  C:0494H         LINE#         117
  C:0494H         LINE#         118
  C:0494H         LINE#         119
  C:0494H         LINE#         121
  C:0494H         LINE#         122
  C:0494H         LINE#         123
  C:049DH         LINE#         124
  C:049DH         LINE#         125
  C:04A3H         LINE#         126
  C:04A3H         LINE#         127
  C:04AAH         LINE#         128
  C:04AAH         LINE#         129
  C:04AAH         LINE#         132
BL51 BANKED LINKER/LOCATER V6.22                                                      06/07/2020  11:08:23  PAGE 153


  C:04B2H         LINE#         133
  C:04B2H         LINE#         134
  C:04B5H         LINE#         135
  C:04B8H         LINE#         136
  C:04BAH         LINE#         138
  C:04BAH         LINE#         139
  C:04C3H         LINE#         140
  C:04C3H         LINE#         141
  C:04CAH         LINE#         142
  C:04CAH         LINE#         147
  C:04DDH         LINE#         148
  C:04DDH         LINE#         150
  C:04E4H         LINE#         151
  C:04E6H         LINE#         153
  C:04E6H         LINE#         154
  C:04EDH         LINE#         155
  C:04EDH         LINE#         160
  C:04F8H         LINE#         161
  C:04F8H         LINE#         162
  C:04FEH         LINE#         163
  C:04FEH         LINE#         164
  C:0504H         LINE#         165
  C:0504H         LINE#         166
  C:0506H         LINE#         168
  C:0506H         LINE#         169
  C:050CH         LINE#         170
  C:050CH         LINE#         171
  C:0512H         LINE#         172
  C:0512H         LINE#         173
  C:0512H         LINE#         183
  C:0512H         LINE#         184
  C:0512H         LINE#         185
  C:0512H         LINE#         188
  C:051CH         LINE#         189
  C:051CH         LINE#         191
  C:0520H         LINE#         192
  C:0527H         LINE#         193
  C:0529H         LINE#         195
  C:0529H         LINE#         197
  C:052DH         LINE#         198
  C:0534H         LINE#         199
  C:0534H         LINE#         200
  C:0536H         LINE#         202
  C:0536H         LINE#         203
  C:053BH         LINE#         204
  C:0542H         LINE#         205
  C:0542H         LINE#         206
  C:0546H         LINE#         207
  C:0546H         LINE#         208
  C:0546H         LINE#         210
  C:0550H         LINE#         211
  C:0550H         LINE#         213
  C:055EH         LINE#         214
  C:055EH         LINE#         218
  C:0567H         LINE#         219
  C:056CH         LINE#         220
  C:0570H         LINE#         222
BL51 BANKED LINKER/LOCATER V6.22                                                      06/07/2020  11:08:23  PAGE 154


  C:0576H         LINE#         223
  C:0576H         LINE#         225
  C:0581H         LINE#         226
  C:0581H         LINE#         227
  C:0584H         LINE#         228
  C:058BH         LINE#         229
  C:058BH         LINE#         230
  C:058BH         LINE#         231
  C:0592H         LINE#         232
  C:0592H         LINE#         234
  C:059DH         LINE#         235
  C:059DH         LINE#         236
  C:059FH         LINE#         237
  C:05A5H         LINE#         238
  C:05A5H         LINE#         239
  C:05A5H         LINE#         240
  C:05A5H         LINE#         241
  C:05A5H         LINE#         242
  -------         ENDPROC       _POS_VIDEOPROCESS
  -------         ENDMOD        AMT_VIDEOPROCESS

  -------         MODULE        ?C?COPY
  C:48C3H         PUBLIC        ?C?COPY
  -------         ENDMOD        ?C?COPY

  -------         MODULE        ?C?CLDPTR
  C:48E9H         PUBLIC        ?C?CLDPTR
  -------         ENDMOD        ?C?CLDPTR

  -------         MODULE        ?C?CLDOPTR
  C:4902H         PUBLIC        ?C?CLDOPTR
  -------         ENDMOD        ?C?CLDOPTR

  -------         MODULE        ?C?CSTOPTR
  C:492FH         PUBLIC        ?C?CSTOPTR
  -------         ENDMOD        ?C?CSTOPTR

  -------         MODULE        ?C?IMUL
  C:4951H         PUBLIC        ?C?IMUL
  -------         ENDMOD        ?C?IMUL

  -------         MODULE        ?C?UIDIV
  C:4963H         PUBLIC        ?C?UIDIV
  -------         ENDMOD        ?C?UIDIV

  -------         MODULE        ?C?SIDIV
  C:49B8H         PUBLIC        ?C?SIDIV
  -------         ENDMOD        ?C?SIDIV

  -------         MODULE        ?C?IILDX
  C:49EEH         PUBLIC        ?C?IILDX
  -------         ENDMOD        ?C?IILDX

  -------         MODULE        ?C?ILDPTR
  C:4A04H         PUBLIC        ?C?ILDPTR
  -------         ENDMOD        ?C?ILDPTR

BL51 BANKED LINKER/LOCATER V6.22                                                      06/07/2020  11:08:23  PAGE 155


  -------         MODULE        ?C?ILDOPTR
  C:4A2FH         PUBLIC        ?C?ILDOPTR
  -------         ENDMOD        ?C?ILDOPTR

  -------         MODULE        ?C?LMUL
  C:4A67H         PUBLIC        ?C?LMUL
  -------         ENDMOD        ?C?LMUL

  -------         MODULE        ?C?ULDIV
  C:4AF2H         PUBLIC        ?C?ULDIV
  -------         ENDMOD        ?C?ULDIV

  -------         MODULE        ?C?ULCMP
  C:4B84H         PUBLIC        ?C?ULCMP
  -------         ENDMOD        ?C?ULCMP

  -------         MODULE        ?C?ULSHR
  C:4B95H         PUBLIC        ?C?ULSHR
  -------         ENDMOD        ?C?ULSHR

  -------         MODULE        ?C?LSTXDATA
  C:4BA8H         PUBLIC        ?C?LSTXDATA
  -------         ENDMOD        ?C?LSTXDATA

  -------         MODULE        ?C?OFFX256
  C:4BB4H         PUBLIC        ?C?OFFX256
  -------         ENDMOD        ?C?OFFX256

  -------         MODULE        ?C?OFFXADD
  C:4BC5H         PUBLIC        ?C?OFFXADD
  -------         ENDMOD        ?C?OFFXADD

  -------         MODULE        ?C?PLDPTR
  C:4BD1H         PUBLIC        ?C?PLDPTR
  -------         ENDMOD        ?C?PLDPTR

  -------         MODULE        ?C?PLDOPTR
  C:4BF1H         PUBLIC        ?C?PLDOPTR
  -------         ENDMOD        ?C?PLDOPTR

  -------         MODULE        ?C?CCASE
  C:4C21H         PUBLIC        ?C?CCASE
  -------         ENDMOD        ?C?CCASE

  -------         MODULE        ?C?ICALL
  C:4C47H         PUBLIC        ?C?ICALL
  C:4C4BH         PUBLIC        ?C?ICALL2
  -------         ENDMOD        ?C?ICALL

  -------         MODULE        ?C_IBP
  D:005BH         PUBLIC        ?C_IBP
  -------         ENDMOD        ?C_IBP

  -------         MODULE        ?C?STRCMP
  C:4DCBH         PUBLIC        ?C?STRCMP
  -------         ENDMOD        ?C?STRCMP

BL51 BANKED LINKER/LOCATER V6.22                                                      06/07/2020  11:08:23  PAGE 156


  -------         MODULE        ATOI
  C:7FDAH         PUBLIC        _atoi
  -------         ENDMOD        ATOI

  -------         MODULE        ?C?PLDIDATA
  C:4DE8H         PUBLIC        ?C?PLDIDATA
  -------         ENDMOD        ?C?PLDIDATA

  -------         MODULE        ?C?PLDXDATA
  C:4DF1H         PUBLIC        ?C?PLDXDATA
  -------         ENDMOD        ?C?PLDXDATA

  -------         MODULE        ?C?PLDPDATA
  C:4DFAH         PUBLIC        ?C?PLDPDATA
  -------         ENDMOD        ?C?PLDPDATA

  -------         MODULE        ?C?PLDCODE
  C:4E03H         PUBLIC        ?C?PLDCODE
  -------         ENDMOD        ?C?PLDCODE

  -------         MODULE        ISDIGIT
  C:A42BH         PUBLIC        _isdigit
  -------         ENDMOD        ISDIGIT

  -------         MODULE        ISSPACE
  C:A3AAH         PUBLIC        _isspace
  -------         ENDMOD        ISSPACE

*** WARNING L16: UNCALLED SEGMENT, IGNORED FOR OVERLAY PROCESS
    SEGMENT: ?PR?POS_SYSTIMEDRIVER?ARKCHIP

*** WARNING L16: UNCALLED SEGMENT, IGNORED FOR OVERLAY PROCESS
    SEGMENT: ?PR?POS_SELECTKEYDEVICE?ARKCHIP

*** WARNING L16: UNCALLED SEGMENT, IGNORED FOR OVERLAY PROCESS
    SEGMENT: ?PR?POS_GETBATTERYADCMSG?GETSYSMSG

*** WARNING L16: UNCALLED SEGMENT, IGNORED FOR OVERLAY PROCESS
    SEGMENT: ?PR?POS_GETBTMSG?GETSYSMSG

*** WARNING L16: UNCALLED SEGMENT, IGNORED FOR OVERLAY PROCESS
    SEGMENT: ?PR?_OSDCONFIGBITMAPPALETTE?ARKCHIP

*** WARNING L16: UNCALLED SEGMENT, IGNORED FOR OVERLAY PROCESS
    SEGMENT: ?PR?_OSDCONFIGDISPMODE?ARKCHIP

*** WARNING L16: UNCALLED SEGMENT, IGNORED FOR OVERLAY PROCESS
    SEGMENT: ?PR?_OSDWRITECHARTOFONTRAM?ARKCHIP

*** WARNING L16: UNCALLED SEGMENT, IGNORED FOR OVERLAY PROCESS
    SEGMENT: ?PR?_LOADBITMAPTOFONTRAM?ARKCHIP

*** WARNING L16: UNCALLED SEGMENT, IGNORED FOR OVERLAY PROCESS
    SEGMENT: ?PR?_OSDCONFIGCOLORCHANGERGB?ARKCHIP

*** WARNING L16: UNCALLED SEGMENT, IGNORED FOR OVERLAY PROCESS
    SEGMENT: ?PR?_OSDCONFIGCOLORCHANGWNDSIZE?ARKCHIP
BL51 BANKED LINKER/LOCATER V6.22                                                      06/07/2020  11:08:23  PAGE 157



*** WARNING L16: UNCALLED SEGMENT, IGNORED FOR OVERLAY PROCESS
    SEGMENT: ?PR?_OSDCONFIGCOLORCHANGWNDPOSITION?ARKCHIP

*** WARNING L16: UNCALLED SEGMENT, IGNORED FOR OVERLAY PROCESS
    SEGMENT: ?PR?_BATTERYADCMSGHANDLE?EVENTHANDLE

*** WARNING L16: UNCALLED SEGMENT, IGNORED FOR OVERLAY PROCESS
    SEGMENT: ?PR?_BTMSGHANDLE?EVENTHANDLE

*** WARNING L16: UNCALLED SEGMENT, IGNORED FOR OVERLAY PROCESS
    SEGMENT: ?PR?_CONFIGVIDEOINPUTSOURCE?VIDEOPROC

*** WARNING L16: UNCALLED SEGMENT, IGNORED FOR OVERLAY PROCESS
    SEGMENT: ?CO?OSD_GENERALFONTDAT

*** WARNING L16: UNCALLED SEGMENT, IGNORED FOR OVERLAY PROCESS
    SEGMENT: ?CO?OSD_LOGOMENU

*** WARNING L16: UNCALLED SEGMENT, IGNORED FOR OVERLAY PROCESS
    SEGMENT: ?PR?LANGUAGEMENU_TITELSTR?OSD_LANGUAGEMENU

*** WARNING L16: UNCALLED SEGMENT, IGNORED FOR OVERLAY PROCESS
    SEGMENT: ?CO?OSD_FACTORYMENU

*** WARNING L16: UNCALLED SEGMENT, IGNORED FOR OVERLAY PROCESS
    SEGMENT: ?CO?OSD_FACTORYSWITCHMENU

Program Size: data=92.7 xdata=175 code=42496
LINK/LOCATE RUN COMPLETE.  19 WARNING(S),  0 ERROR(S)
